(dp1
S'files'
p2
(dp3
S'_home_uss_Desktop_myWebDev_django-uss_lib_python2_7_site-packages_Django-1_5_5-py2_7_egg_django_core_cache___init__'
p4
(dp5
S'index'
p6
(dp7
S'html_filename'
p8
S'_home_uss_Desktop_myWebDev_django-uss_lib_python2_7_site-packages_Django-1_5_5-py2_7_egg_django_core_cache___init__.html'
p9
sS'name'
p10
S'/home/uss/Desktop/myWebDev/django-uss/lib/python2.7/site-packages/Django-1.5.5-py2.7.egg/django/core/cache/__init__'
p11
sS'nums'
p12
ccopy_reg
_reconstructor
p13
(ccoverage.results
Numbers
p14
c__builtin__
object
p15
NtRp16
(dp17
S'n_files'
p18
I1
sS'n_branches'
p19
I0
sS'n_statements'
p20
I65
sS'n_excluded'
p21
I0
sS'n_partial_branches'
p22
I0
sS'n_missing'
p23
I32
sS'n_missing_branches'
p24
I0
sbssS'hash'
p25
S'\xcfU\xb7\x08J\x17s}\xb4\x9b\x888\xb0\xcf\xc3\x83'
p26
ssS'_home_uss_Desktop_myWebDev_django-uss_lib_python2_7_site-packages_Django-1_5_5-py2_7_egg_django_utils_cache'
p27
(dp28
g6
(dp29
S'html_filename'
p30
S'_home_uss_Desktop_myWebDev_django-uss_lib_python2_7_site-packages_Django-1_5_5-py2_7_egg_django_utils_cache.html'
p31
sS'name'
p32
S'/home/uss/Desktop/myWebDev/django-uss/lib/python2.7/site-packages/Django-1.5.5-py2.7.egg/django/utils/cache'
p33
sS'nums'
p34
g13
(g14
g15
NtRp35
(dp36
g18
I1
sg19
I0
sg20
I126
sg21
I0
sg22
I0
sg23
I96
sg24
I0
sbssg25
S'\xb5,3\x19\xfb\xa7\xfaK\xd6\x991\xfb\x943\x00\x00'
p37
ssS'_home_uss_Desktop_myWebDev_django-uss_lib_python2_7_site-packages_Django-1_5_5-py2_7_egg_django_db_models_fields___init__'
p38
(dp39
g6
(dp40
g30
S'_home_uss_Desktop_myWebDev_django-uss_lib_python2_7_site-packages_Django-1_5_5-py2_7_egg_django_db_models_fields___init__.html'
p41
sg32
S'/home/uss/Desktop/myWebDev/django-uss/lib/python2.7/site-packages/Django-1.5.5-py2.7.egg/django/db/models/fields/__init__'
p42
sg34
g13
(g14
g15
NtRp43
(dp44
g18
I1
sg19
I0
sg20
I794
sg21
I0
sg22
I0
sg23
I381
sg24
I0
sbssg25
S'\xcb\xc5\x98\xeb\xdd\xc21F\x7f{\xa4P\x80KN\x8b'
p45
ssS'_home_uss_Desktop_myWebDev_django-uss_lib_python2_7_site-packages_Django-1_5_5-py2_7_egg_django_contrib_staticfiles_models'
p46
(dp47
g6
(dp48
g8
S'_home_uss_Desktop_myWebDev_django-uss_lib_python2_7_site-packages_Django-1_5_5-py2_7_egg_django_contrib_staticfiles_models.html'
p49
sg10
S'/home/uss/Desktop/myWebDev/django-uss/lib/python2.7/site-packages/Django-1.5.5-py2.7.egg/django/contrib/staticfiles/models'
p50
sg12
g13
(g14
g15
NtRp51
(dp52
g18
I1
sg19
I0
sg20
I0
sg21
I0
sg22
I0
sg23
I0
sg24
I0
sbssg25
S'\xb0\xc8pN\xaf>\xa0\xbaz\x144\xe0A9\xb8?'
p53
ssS'_home_uss_Desktop_myWebDev_django-uss_lib_python2_7_site-packages_Django-1_5_5-py2_7_egg_django_db_models___init__'
p54
(dp55
g6
(dp56
g8
S'_home_uss_Desktop_myWebDev_django-uss_lib_python2_7_site-packages_Django-1_5_5-py2_7_egg_django_db_models___init__.html'
p57
sg10
S'/home/uss/Desktop/myWebDev/django-uss/lib/python2.7/site-packages/Django-1.5.5-py2.7.egg/django/db/models/__init__'
p58
sg12
g13
(g14
g15
NtRp59
(dp60
g18
I1
sg19
I0
sg20
I22
sg21
I0
sg22
I0
sg23
I5
sg24
I0
sbssg25
S'\xe0\x1a&\xbc\x03aQ \x8f\xa5Y\xf1\xe6\xcb\xc4\xcf'
p61
ssS'_home_uss_Desktop_myWebDev_django-uss_lib_python2_7_site-packages_Django-1_5_5-py2_7_egg_django_conf_locale_en___init__'
p62
(dp63
g6
(dp64
g8
S'_home_uss_Desktop_myWebDev_django-uss_lib_python2_7_site-packages_Django-1_5_5-py2_7_egg_django_conf_locale_en___init__.html'
p65
sg10
S'/home/uss/Desktop/myWebDev/django-uss/lib/python2.7/site-packages/Django-1.5.5-py2.7.egg/django/conf/locale/en/__init__'
p66
sg12
g13
(g14
g15
NtRp67
(dp68
g18
I1
sg19
I0
sg20
I0
sg21
I0
sg22
I0
sg23
I0
sg24
I0
sbssg25
S'\xb0\xc8pN\xaf>\xa0\xbaz\x144\xe0A9\xb8?'
p69
ssS'_home_uss_Desktop_myWebDev_django-uss_lib_python2_7_site-packages_Django-1_5_5-py2_7_egg_django_http___init__'
p70
(dp71
g6
(dp72
g8
S'_home_uss_Desktop_myWebDev_django-uss_lib_python2_7_site-packages_Django-1_5_5-py2_7_egg_django_http___init__.html'
p73
sg10
S'/home/uss/Desktop/myWebDev/django-uss/lib/python2.7/site-packages/Django-1.5.5-py2.7.egg/django/http/__init__'
p74
sg12
g13
(g14
g15
NtRp75
(dp76
g18
I1
sg19
I0
sg20
I4
sg21
I0
sg22
I0
sg23
I0
sg24
I0
sbssg25
S'9D\xc4$2\xe1*J\xb6\xd3\x1b\xbe-\x93\x1c%'
p77
ssS'_home_uss_Desktop_myWebDev_django-uss_lib_python2_7_site-packages_Django-1_5_5-py2_7_egg_django_db_models_fields_files'
p78
(dp79
g6
(dp80
g30
S'_home_uss_Desktop_myWebDev_django-uss_lib_python2_7_site-packages_Django-1_5_5-py2_7_egg_django_db_models_fields_files.html'
p81
sg32
S'/home/uss/Desktop/myWebDev/django-uss/lib/python2.7/site-packages/Django-1.5.5-py2.7.egg/django/db/models/fields/files'
p82
sg34
g13
(g14
g15
NtRp83
(dp84
g18
I1
sg19
I0
sg20
I204
sg21
I0
sg22
I0
sg23
I100
sg24
I0
sbssg25
S'\x92\xce\x1c\xeb\x92\xc5\x9dD\x0e\xe8\n*K5\xe9D'
p85
ssS'_home_uss_Desktop_myWebDev_django-uss_lib_python2_7_site-packages_Django-1_5_5-py2_7_egg_django_contrib_sessions_models'
p86
(dp87
g6
(dp88
g8
S'_home_uss_Desktop_myWebDev_django-uss_lib_python2_7_site-packages_Django-1_5_5-py2_7_egg_django_contrib_sessions_models.html'
p89
sg10
S'/home/uss/Desktop/myWebDev/django-uss/lib/python2.7/site-packages/Django-1.5.5-py2.7.egg/django/contrib/sessions/models'
p90
sg12
g13
(g14
g15
NtRp91
(dp92
g18
I1
sg19
I0
sg20
I23
sg21
I0
sg22
I0
sg23
I7
sg24
I0
sbssg25
S'x\xddm4\x9e\xd9\xf8\x08\xfb\xd4[C\xe7ER\xc5'
p93
ssS'_home_uss_Desktop_myWebDev_django-uss_lib_python2_7_site-packages_Django-1_5_5-py2_7_egg_django_contrib_admin_sites'
p94
(dp95
g6
(dp96
g30
S'_home_uss_Desktop_myWebDev_django-uss_lib_python2_7_site-packages_Django-1_5_5-py2_7_egg_django_contrib_admin_sites.html'
p97
sg32
S'/home/uss/Desktop/myWebDev/django-uss/lib/python2.7/site-packages/Django-1.5.5-py2.7.egg/django/contrib/admin/sites'
p98
sg34
g13
(g14
g15
NtRp99
(dp100
g18
I1
sg19
I0
sg20
I204
sg21
I0
sg22
I0
sg23
I118
sg24
I0
sbssg25
S'Q\t\x97t\x0e\xd72^\x92\xb2\x96\x01\xfd\xd0n\xe2'
p101
ssS'_home_uss_Desktop_myWebDev_django-uss_lib_python2_7_site-packages_Django-1_5_5-py2_7_egg_django_utils_formats'
p102
(dp103
g6
(dp104
g30
S'_home_uss_Desktop_myWebDev_django-uss_lib_python2_7_site-packages_Django-1_5_5-py2_7_egg_django_utils_formats.html'
p105
sg32
S'/home/uss/Desktop/myWebDev/django-uss/lib/python2.7/site-packages/Django-1.5.5-py2.7.egg/django/utils/formats'
p106
sg34
g13
(g14
g15
NtRp107
(dp108
g18
I1
sg19
I0
sg20
I115
sg21
I0
sg22
I0
sg23
I44
sg24
I0
sbssg25
S'p\x9e\xddoV\x0e\xd8;r\xc9\xe7Poo\xf8\xa3'
p109
ssS'_home_uss_Desktop_myWebDev_django-uss_lib_python2_7_site-packages_Django-1_5_5-py2_7_egg_django_contrib_auth_forms'
p110
(dp111
g6
(dp112
g8
S'_home_uss_Desktop_myWebDev_django-uss_lib_python2_7_site-packages_Django-1_5_5-py2_7_egg_django_contrib_auth_forms.html'
p113
sg10
S'/home/uss/Desktop/myWebDev/django-uss/lib/python2.7/site-packages/Django-1.5.5-py2.7.egg/django/contrib/auth/forms'
p114
sg12
g13
(g14
g15
NtRp115
(dp116
g18
I1
sg19
I0
sg20
I181
sg21
I0
sg22
I0
sg23
I105
sg24
I0
sbssg25
S'\xcaU\xe0\xb3\x96KKn_\x06\xac\xaa*p@\xc8'
p117
ssS'_home_uss_Desktop_myWebDev_django-uss_lib_python2_7_site-packages_Django-1_5_5-py2_7_egg_django_contrib_messages_storage_cookie'
p118
(dp119
S'index'
p120
(dp121
g30
S'_home_uss_Desktop_myWebDev_django-uss_lib_python2_7_site-packages_Django-1_5_5-py2_7_egg_django_contrib_messages_storage_cookie.html'
p122
sg32
S'/home/uss/Desktop/myWebDev/django-uss/lib/python2.7/site-packages/Django-1.5.5-py2.7.egg/django/contrib/messages/storage/cookie'
p123
sg34
g13
(g14
g15
NtRp124
(dp125
g18
I1
sg19
I0
sg20
I83
sg21
I0
sg22
I0
sg23
I60
sg24
I0
sbssS'hash'
p126
S'\xc4x\xb5\xc9\xab\xd5\xa6y\xda\xa7\x1c\xb3%$z\x1c'
p127
ssS'_home_uss_Desktop_myWebDev_django-uss_lib_python2_7_site-packages_Django-1_5_5-py2_7_egg_django_core_management_color'
p128
(dp129
g6
(dp130
g8
S'_home_uss_Desktop_myWebDev_django-uss_lib_python2_7_site-packages_Django-1_5_5-py2_7_egg_django_core_management_color.html'
p131
sg10
S'/home/uss/Desktop/myWebDev/django-uss/lib/python2.7/site-packages/Django-1.5.5-py2.7.egg/django/core/management/color'
p132
sg12
g13
(g14
g15
NtRp133
(dp134
g18
I1
sg19
I0
sg20
I28
sg21
I0
sg22
I0
sg23
I3
sg24
I0
sbssg25
S'\x1f\x18m\xdf\x9b&\x90\xbe\xf5\x15C\x10\x8e\x16\xcd\xc4'
p135
ssS'_home_uss_Desktop_myWebDev_django-uss_lib_python2_7_site-packages_Django-1_5_5-py2_7_egg_django_test_html'
p136
(dp137
g6
(dp138
g8
S'_home_uss_Desktop_myWebDev_django-uss_lib_python2_7_site-packages_Django-1_5_5-py2_7_egg_django_test_html.html'
p139
sg10
S'/home/uss/Desktop/myWebDev/django-uss/lib/python2.7/site-packages/Django-1.5.5-py2.7.egg/django/test/html'
p140
sg12
g13
(g14
g15
NtRp141
(dp142
g18
I1
sg19
I0
sg20
I167
sg21
I0
sg22
I0
sg23
I128
sg24
I0
sbssg25
S'\xb3\x03\x1f\xb6\xaf\xaf\xe2p\xe6\x89\x19\x83\xe6{\xa4^'
p143
ssS'_home_uss_Desktop_myWebDev_django-uss_lib_python2_7_site-packages_Django-1_5_5-py2_7_egg_django_contrib_staticfiles___init__'
p144
(dp145
g6
(dp146
g8
S'_home_uss_Desktop_myWebDev_django-uss_lib_python2_7_site-packages_Django-1_5_5-py2_7_egg_django_contrib_staticfiles___init__.html'
p147
sg10
S'/home/uss/Desktop/myWebDev/django-uss/lib/python2.7/site-packages/Django-1.5.5-py2.7.egg/django/contrib/staticfiles/__init__'
p148
sg12
g13
(g14
g15
NtRp149
(dp150
g18
I1
sg19
I0
sg20
I0
sg21
I0
sg22
I0
sg23
I0
sg24
I0
sbssg25
S'\xb0\xc8pN\xaf>\xa0\xbaz\x144\xe0A9\xb8?'
p151
ssS'_home_uss_Desktop_myWebDev_django-uss_lib_python2_7_site-packages_Django-1_5_5-py2_7_egg_django_db_models_fields_proxy'
p152
(dp153
g6
(dp154
g8
S'_home_uss_Desktop_myWebDev_django-uss_lib_python2_7_site-packages_Django-1_5_5-py2_7_egg_django_db_models_fields_proxy.html'
p155
sg10
S'/home/uss/Desktop/myWebDev/django-uss/lib/python2.7/site-packages/Django-1.5.5-py2.7.egg/django/db/models/fields/proxy'
p156
sg12
g13
(g14
g15
NtRp157
(dp158
g18
I1
sg19
I0
sg20
I6
sg21
I0
sg22
I0
sg23
I3
sg24
I0
sbssg25
S'\xaf:\xd7\xa5\xadun\x1b\xb7\x141\x81\x80j\x94\xe6'
p159
ssS'_home_uss_Desktop_myWebDev_django-uss_lib_python2_7_site-packages_Django-1_5_5-py2_7_egg_django_utils_functional'
p160
(dp161
g6
(dp162
g30
S'_home_uss_Desktop_myWebDev_django-uss_lib_python2_7_site-packages_Django-1_5_5-py2_7_egg_django_utils_functional.html'
p163
sg32
S'/home/uss/Desktop/myWebDev/django-uss/lib/python2.7/site-packages/Django-1.5.5-py2.7.egg/django/utils/functional'
p164
sg34
g13
(g14
g15
NtRp165
(dp166
g18
I1
sg19
I0
sg20
I207
sg21
I0
sg22
I0
sg23
I70
sg24
I0
sbssg25
S'\n\xb5\x15|8}\xca\xda\x10\x18_Q\xe7x\xf4"'
p167
ssS'_home_uss_Desktop_myWebDev_django-uss_lib_python2_7_site-packages_Django-1_5_5-py2_7_egg_django_contrib_staticfiles_handlers'
p168
(dp169
g6
(dp170
g8
S'_home_uss_Desktop_myWebDev_django-uss_lib_python2_7_site-packages_Django-1_5_5-py2_7_egg_django_contrib_staticfiles_handlers.html'
p171
sg10
S'/home/uss/Desktop/myWebDev/django-uss/lib/python2.7/site-packages/Django-1.5.5-py2.7.egg/django/contrib/staticfiles/handlers'
p172
sg12
g13
(g14
g15
NtRp173
(dp174
g18
I1
sg19
I0
sg20
I45
sg21
I0
sg22
I0
sg23
I26
sg24
I0
sbssg25
S"\x91'\x19\xf0H\xe9n\xb6\xf4\xb7j\xe8\x82I_]"
p175
ssS'_home_uss_Desktop_myWebDev_django-uss_lib_python2_7_site-packages_Django-1_5_5-py2_7_egg_django_contrib_sessions_management___init__'
p176
(dp177
g6
(dp178
g8
S'_home_uss_Desktop_myWebDev_django-uss_lib_python2_7_site-packages_Django-1_5_5-py2_7_egg_django_contrib_sessions_management___init__.html'
p179
sg10
S'/home/uss/Desktop/myWebDev/django-uss/lib/python2.7/site-packages/Django-1.5.5-py2.7.egg/django/contrib/sessions/management/__init__'
p180
sg12
g13
(g14
g15
NtRp181
(dp182
g18
I1
sg19
I0
sg20
I0
sg21
I0
sg22
I0
sg23
I0
sg24
I0
sbssg25
S'\xb0\xc8pN\xaf>\xa0\xbaz\x144\xe0A9\xb8?'
p183
ssS'_home_uss_Desktop_myWebDev_django-uss_lib_python2_7_site-packages_Django-1_5_5-py2_7_egg_django_forms_forms'
p184
(dp185
g6
(dp186
g30
S'_home_uss_Desktop_myWebDev_django-uss_lib_python2_7_site-packages_Django-1_5_5-py2_7_egg_django_forms_forms.html'
p187
sg32
S'/home/uss/Desktop/myWebDev/django-uss/lib/python2.7/site-packages/Django-1.5.5-py2.7.egg/django/forms/forms'
p188
sg34
g13
(g14
g15
NtRp189
(dp190
g18
I1
sg19
I0
sg20
I281
sg21
I0
sg22
I0
sg23
I194
sg24
I0
sbssg25
S'F\xdd\xcc\x1a\\\x08\x99\x12\xbf0\xa6X\\\x81\xe8\x0e'
p191
ssS'_home_uss_Desktop_myWebDev_django-uss_lib_python2_7_site-packages_Django-1_5_5-py2_7_egg_django_db_models_sql_datastructures'
p192
(dp193
g6
(dp194
g8
S'_home_uss_Desktop_myWebDev_django-uss_lib_python2_7_site-packages_Django-1_5_5-py2_7_egg_django_db_models_sql_datastructures.html'
p195
sg10
S'/home/uss/Desktop/myWebDev/django-uss/lib/python2.7/site-packages/Django-1.5.5-py2.7.egg/django/db/models/sql/datastructures'
p196
sg12
g13
(g14
g15
NtRp197
(dp198
g18
I1
sg19
I0
sg20
I23
sg21
I0
sg22
I0
sg23
I11
sg24
I0
sbssg25
S'\x07\xe3\x96|t;\xd3\xca\x8a\x1f]\x94d\xcc\r\xa8'
p199
ssS'_home_uss_Desktop_myWebDev_django-uss_lib_python2_7_site-packages_Django-1_5_5-py2_7_egg_django_template_debug'
p200
(dp201
g120
(dp202
g30
S'_home_uss_Desktop_myWebDev_django-uss_lib_python2_7_site-packages_Django-1_5_5-py2_7_egg_django_template_debug.html'
p203
sg32
S'/home/uss/Desktop/myWebDev/django-uss/lib/python2.7/site-packages/Django-1.5.5-py2.7.egg/django/template/debug'
p204
sg34
g13
(g14
g15
NtRp205
(dp206
g18
I1
sg19
I0
sg20
I78
sg21
I0
sg22
I0
sg23
I19
sg24
I0
sbssg126
S'\xf2D\x13\xb2\x83[\x14w\xd3\xe6\x82Z1\xb1\xec\xde'
p207
ssS'_home_uss_Desktop_myWebDev_django-uss_lib_python2_7_site-packages_Django-1_5_5-py2_7_egg_django_db_backends_util'
p208
(dp209
g6
(dp210
g8
S'_home_uss_Desktop_myWebDev_django-uss_lib_python2_7_site-packages_Django-1_5_5-py2_7_egg_django_db_backends_util.html'
p211
sg10
S'/home/uss/Desktop/myWebDev/django-uss/lib/python2.7/site-packages/Django-1.5.5-py2.7.egg/django/db/backends/util'
p212
sg12
g13
(g14
g15
NtRp213
(dp214
g18
I1
sg19
I0
sg20
I94
sg21
I0
sg22
I0
sg23
I60
sg24
I0
sbssg25
S'\xd5\xdd\xd2\x1e3\x96\x0e\xf7\x03\xe1r\xe1\x7f\xb0Y\x92'
p215
ssS'_home_uss_Desktop_myWebDev_django-uss_lib_python2_7_site-packages_Django-1_5_5-py2_7_egg_django_conf_locale_en_formats'
p216
(dp217
g6
(dp218
g8
S'_home_uss_Desktop_myWebDev_django-uss_lib_python2_7_site-packages_Django-1_5_5-py2_7_egg_django_conf_locale_en_formats.html'
p219
sg10
S'/home/uss/Desktop/myWebDev/django-uss/lib/python2.7/site-packages/Django-1.5.5-py2.7.egg/django/conf/locale/en/formats'
p220
sg12
g13
(g14
g15
NtRp221
(dp222
g18
I1
sg19
I0
sg20
I13
sg21
I0
sg22
I0
sg23
I0
sg24
I0
sbssg25
S'N\x11\xf3\xa6\x0e\xc6\x1f\xdeR\xeaSF\xa5vb\x90'
p223
ssS'_home_uss_Desktop_myWebDev_django-uss_lib_python2_7_site-packages_Django-1_5_5-py2_7_egg_django_contrib_messages_storage_fallback'
p224
(dp225
g120
(dp226
g30
S'_home_uss_Desktop_myWebDev_django-uss_lib_python2_7_site-packages_Django-1_5_5-py2_7_egg_django_contrib_messages_storage_fallback.html'
p227
sg32
S'/home/uss/Desktop/myWebDev/django-uss/lib/python2.7/site-packages/Django-1.5.5-py2.7.egg/django/contrib/messages/storage/fallback'
p228
sg34
g13
(g14
g15
NtRp229
(dp230
g18
I1
sg19
I0
sg20
I29
sg21
I0
sg22
I0
sg23
I18
sg24
I0
sbssg126
S"\x86\xf6\x90W\x81\x1c\xf3'\x83\xb7\xa0A{\xf4x\x07"
p231
ssS'_home_uss_Desktop_myWebDev_django-uss_lib_python2_7_site-packages_Django-1_5_5-py2_7_egg_django_core_files_utils'
p232
(dp233
g6
(dp234
g8
S'_home_uss_Desktop_myWebDev_django-uss_lib_python2_7_site-packages_Django-1_5_5-py2_7_egg_django_core_files_utils.html'
p235
sg10
S'/home/uss/Desktop/myWebDev/django-uss/lib/python2.7/site-packages/Django-1.5.5-py2.7.egg/django/core/files/utils'
p236
sg12
g13
(g14
g15
NtRp237
(dp238
g18
I1
sg19
I0
sg20
I19
sg21
I0
sg22
I0
sg23
I1
sg24
I0
sbssg25
S'\x91@)\xe4(\x81\xd6\xb8\x9b\x16\xc4\xeeh\x11e\xff'
p239
ssS'_home_uss_Desktop_myWebDev_django-uss_lib_python2_7_site-packages_Django-1_5_5-py2_7_egg_django_contrib_admin___init__'
p240
(dp241
g6
(dp242
g30
S'_home_uss_Desktop_myWebDev_django-uss_lib_python2_7_site-packages_Django-1_5_5-py2_7_egg_django_contrib_admin___init__.html'
p243
sg32
S'/home/uss/Desktop/myWebDev/django-uss/lib/python2.7/site-packages/Django-1.5.5-py2.7.egg/django/contrib/admin/__init__'
p244
sg34
g13
(g14
g15
NtRp245
(dp246
g18
I1
sg19
I0
sg20
I19
sg21
I0
sg22
I0
sg23
I1
sg24
I0
sbssg25
S"\xd5?\x9e\xd9\x8c\x0c\x92\xe6'\x9e\x10l\xc5\xcd\xb8p"
p247
ssS'_home_uss_Desktop_myWebDev_django-uss_lib_python2_7_site-packages_Django-1_5_5-py2_7_egg_django_contrib_admin_filters'
p248
(dp249
g6
(dp250
g8
S'_home_uss_Desktop_myWebDev_django-uss_lib_python2_7_site-packages_Django-1_5_5-py2_7_egg_django_contrib_admin_filters.html'
p251
sg10
S'/home/uss/Desktop/myWebDev/django-uss/lib/python2.7/site-packages/Django-1.5.5-py2.7.egg/django/contrib/admin/filters'
p252
sg12
g13
(g14
g15
NtRp253
(dp254
g18
I1
sg19
I0
sg20
I184
sg21
I0
sg22
I0
sg23
I123
sg24
I0
sbssg25
S'\xd1\xb1-a\xf9\x97}\x95\x86g\x7f\x1e6\x88H\xb7'
p255
ssS'_home_uss_Desktop_myWebDev_django-uss_lib_python2_7_site-packages_Django-1_5_5-py2_7_egg_django_conf_urls___init__'
p256
(dp257
g120
(dp258
g30
S'_home_uss_Desktop_myWebDev_django-uss_lib_python2_7_site-packages_Django-1_5_5-py2_7_egg_django_conf_urls___init__.html'
p259
sg32
S'/home/uss/Desktop/myWebDev/django-uss/lib/python2.7/site-packages/Django-1.5.5-py2.7.egg/django/conf/urls/__init__'
p260
sg34
g13
(g14
g15
NtRp261
(dp262
g18
I1
sg19
I0
sg20
I41
sg21
I0
sg22
I0
sg23
I4
sg24
I0
sbssg126
S'~\xf4\xeaz\xf19\xd8Qm<1\xbc\x91\x96\x89\xb8'
p263
ssS'_home_uss_Desktop_myWebDev_django-uss_lib_python2_7_site-packages_Django-1_5_5-py2_7_egg_django_http_request'
p264
(dp265
g6
(dp266
g30
S'_home_uss_Desktop_myWebDev_django-uss_lib_python2_7_site-packages_Django-1_5_5-py2_7_egg_django_http_request.html'
p267
sg32
S'/home/uss/Desktop/myWebDev/django-uss/lib/python2.7/site-packages/Django-1.5.5-py2.7.egg/django/http/request'
p268
sg34
g13
(g14
g15
NtRp269
(dp270
g18
I1
sg19
I0
sg20
I280
sg21
I0
sg22
I0
sg23
I182
sg24
I0
sbssg25
S'\xa5D\xfc\x0f\xfc<_\x837\x82\xe2 ISO\x08'
p271
ssS'_home_uss_Desktop_myWebDev_django-uss_lib_python2_7_site-packages_Django-1_5_5-py2_7_egg_django_views_generic_base'
p272
(dp273
g120
(dp274
g30
S'_home_uss_Desktop_myWebDev_django-uss_lib_python2_7_site-packages_Django-1_5_5-py2_7_egg_django_views_generic_base.html'
p275
sg32
S'/home/uss/Desktop/myWebDev/django-uss/lib/python2.7/site-packages/Django-1.5.5-py2.7.egg/django/views/generic/base'
p276
sg34
g13
(g14
g15
NtRp277
(dp278
g18
I1
sg19
I0
sg20
I96
sg21
I0
sg22
I0
sg23
I53
sg24
I0
sbssg126
S'1t\x11\xf3Q\x9d^\x01\x066\xd5\x96\xf4\x9f(\x98'
p279
ssS'_home_uss_Desktop_myWebDev_django-uss_lib_python2_7_site-packages_Django-1_5_5-py2_7_egg_django_db_models_aggregates'
p280
(dp281
g6
(dp282
g8
S'_home_uss_Desktop_myWebDev_django-uss_lib_python2_7_site-packages_Django-1_5_5-py2_7_egg_django_db_models_aggregates.html'
p283
sg10
S'/home/uss/Desktop/myWebDev/django-uss/lib/python2.7/site-packages/Django-1.5.5-py2.7.egg/django/db/models/aggregates'
p284
sg12
g13
(g14
g15
NtRp285
(dp286
g18
I1
sg19
I0
sg20
I25
sg21
I0
sg22
I0
sg23
I6
sg24
I0
sbssg25
S'TO\x1e/\xbc\x9c\x17\xc0\xd4\xad\xd9\xae\xc4\\\xa4I'
p287
ssS'_home_uss_Desktop_myWebDev_django-uss_lib_python2_7_site-packages_Django-1_5_5-py2_7_egg_django_middleware___init__'
p288
(dp289
g6
(dp290
g8
S'_home_uss_Desktop_myWebDev_django-uss_lib_python2_7_site-packages_Django-1_5_5-py2_7_egg_django_middleware___init__.html'
p291
sg10
S'/home/uss/Desktop/myWebDev/django-uss/lib/python2.7/site-packages/Django-1.5.5-py2.7.egg/django/middleware/__init__'
p292
sg12
g13
(g14
g15
NtRp293
(dp294
g18
I1
sg19
I0
sg20
I0
sg21
I0
sg22
I0
sg23
I0
sg24
I0
sbssg25
S'\xb0\xc8pN\xaf>\xa0\xbaz\x144\xe0A9\xb8?'
p295
ssS'_home_uss_Desktop_myWebDev_django-uss_lib_python2_7_site-packages_Django-1_5_5-py2_7_egg_django_db_models_constants'
p296
(dp297
g6
(dp298
g8
S'_home_uss_Desktop_myWebDev_django-uss_lib_python2_7_site-packages_Django-1_5_5-py2_7_egg_django_db_models_constants.html'
p299
sg10
S'/home/uss/Desktop/myWebDev/django-uss/lib/python2.7/site-packages/Django-1.5.5-py2.7.egg/django/db/models/constants'
p300
sg12
g13
(g14
g15
NtRp301
(dp302
g18
I1
sg19
I0
sg20
I1
sg21
I0
sg22
I0
sg23
I0
sg24
I0
sbssg25
S'\xef\x06{\x16\xaf\xdf\xe1\xdd\xad\xcc\xcb\xa8A\x84\xe7\xab'
p303
ssS'_home_uss_Desktop_myWebDev_django-uss_lib_python2_7_site-packages_Django-1_5_5-py2_7_egg_django_views_decorators_debug'
p304
(dp305
g120
(dp306
g30
S'_home_uss_Desktop_myWebDev_django-uss_lib_python2_7_site-packages_Django-1_5_5-py2_7_egg_django_views_decorators_debug.html'
p307
sg32
S'/home/uss/Desktop/myWebDev/django-uss/lib/python2.7/site-packages/Django-1.5.5-py2.7.egg/django/views/decorators/debug'
p308
sg34
g13
(g14
g15
NtRp309
(dp310
g18
I1
sg19
I0
sg20
I21
sg21
I0
sg22
I0
sg23
I13
sg24
I0
sbssg126
S'\xcbA\x90\x9f]\xf8\xa8\xcaB.R!M\x80\x05\x0e'
p311
ssS'_home_uss_Desktop_myWebDev_django-uss_lib_python2_7_site-packages_Django-1_5_5-py2_7_egg_django_contrib_admin_widgets'
p312
(dp313
g6
(dp314
g8
S'_home_uss_Desktop_myWebDev_django-uss_lib_python2_7_site-packages_Django-1_5_5-py2_7_egg_django_contrib_admin_widgets.html'
p315
sg10
S'/home/uss/Desktop/myWebDev/django-uss/lib/python2.7/site-packages/Django-1.5.5-py2.7.egg/django/contrib/admin/widgets'
p316
sg12
g13
(g14
g15
NtRp317
(dp318
g18
I1
sg19
I0
sg20
I223
sg21
I0
sg22
I0
sg23
I154
sg24
I0
sbssg25
S'\xff"\xe1\x07\x97\x85I\x92AD\xc6\x02l\'&m'
p319
ssS'_home_uss_Desktop_myWebDev_django-uss_lib_python2_7_site-packages_Django-1_5_5-py2_7_egg_django_db_backends_signals'
p320
(dp321
g6
(dp322
g8
S'_home_uss_Desktop_myWebDev_django-uss_lib_python2_7_site-packages_Django-1_5_5-py2_7_egg_django_db_backends_signals.html'
p323
sg10
S'/home/uss/Desktop/myWebDev/django-uss/lib/python2.7/site-packages/Django-1.5.5-py2.7.egg/django/db/backends/signals'
p324
sg12
g13
(g14
g15
NtRp325
(dp326
g18
I1
sg19
I0
sg20
I2
sg21
I0
sg22
I0
sg23
I0
sg24
I0
sbssg25
S'\xac\xe8\xc0\xe9\x8a\xd9d\xcc\x03\xc1\x89\xd4\xde\xa8x<'
p327
ssS'django_test___init__'
p328
(dp329
g6
(dp330
g8
S'django_test___init__.html'
p331
sg10
S'django_test/__init__'
p332
sg12
g13
(g14
g15
NtRp333
(dp334
g18
I1
sg19
I0
sg20
I0
sg21
I0
sg22
I0
sg23
I0
sg24
I0
sbssg25
S'\xb0\xc8pN\xaf>\xa0\xbaz\x144\xe0A9\xb8?'
p335
ssS'_home_uss_Desktop_myWebDev_django-uss_lib_python2_7_site-packages_Django-1_5_5-py2_7_egg_django_utils_html_parser'
p336
(dp337
g6
(dp338
g8
S'_home_uss_Desktop_myWebDev_django-uss_lib_python2_7_site-packages_Django-1_5_5-py2_7_egg_django_utils_html_parser.html'
p339
sg10
S'/home/uss/Desktop/myWebDev/django-uss/lib/python2.7/site-packages/Django-1.5.5-py2.7.egg/django/utils/html_parser'
p340
sg12
g13
(g14
g15
NtRp341
(dp342
g18
I1
sg19
I0
sg20
I82
sg21
I0
sg22
I0
sg23
I74
sg24
I0
sbssg25
S'e\x17l\x17W\x16\xddr\xecYeXj\xc6!\xf4'
p343
ssS'_home_uss_Desktop_myWebDev_django-uss_lib_python2_7_site-packages_Django-1_5_5-py2_7_egg_django_utils_html'
p344
(dp345
g6
(dp346
g30
S'_home_uss_Desktop_myWebDev_django-uss_lib_python2_7_site-packages_Django-1_5_5-py2_7_egg_django_utils_html.html'
p347
sg32
S'/home/uss/Desktop/myWebDev/django-uss/lib/python2.7/site-packages/Django-1.5.5-py2.7.egg/django/utils/html'
p348
sg34
g13
(g14
g15
NtRp349
(dp350
g18
I1
sg19
I0
sg20
I150
sg21
I0
sg22
I0
sg23
I92
sg24
I0
sbssg25
S'\xab\xac|"j\xc96\xe3\r\x01s\xc4Y\xedFc'
p351
ssS'_home_uss_Desktop_myWebDev_django-uss_lib_python2_7_site-packages_Django-1_5_5-py2_7_egg_django___init__'
p352
(dp353
g6
(dp354
g8
S'_home_uss_Desktop_myWebDev_django-uss_lib_python2_7_site-packages_Django-1_5_5-py2_7_egg_django___init__.html'
p355
sg10
S'/home/uss/Desktop/myWebDev/django-uss/lib/python2.7/site-packages/Django-1.5.5-py2.7.egg/django/__init__'
p356
sg12
g13
(g14
g15
NtRp357
(dp358
g18
I1
sg19
I0
sg20
I4
sg21
I0
sg22
I0
sg23
I0
sg24
I0
sbssg25
S'[\xe1!lm*\x05\xb1pl\xe2\xd1\x97\x89lV'
p359
ssS'_home_uss_Desktop_myWebDev_django-uss_lib_python2_7_site-packages_Django-1_5_5-py2_7_egg_django_utils_http'
p360
(dp361
g6
(dp362
g30
S'_home_uss_Desktop_myWebDev_django-uss_lib_python2_7_site-packages_Django-1_5_5-py2_7_egg_django_utils_http.html'
p363
sg32
S'/home/uss/Desktop/myWebDev/django-uss/lib/python2.7/site-packages/Django-1.5.5-py2.7.egg/django/utils/http'
p364
sg34
g13
(g14
g15
NtRp365
(dp366
g18
I1
sg19
I0
sg20
I122
sg21
I0
sg22
I0
sg23
I69
sg24
I0
sbssg25
S'\x8fX\xfc\x9a_my\xf2+\x9b,\xc3\xb0\x8c\x011'
p367
ssS'_home_uss_Desktop_myWebDev_django-uss_lib_python2_7_site-packages_Django-1_5_5-py2_7_egg_django_contrib_messages_storage___init__'
p368
(dp369
g6
(dp370
g30
S'_home_uss_Desktop_myWebDev_django-uss_lib_python2_7_site-packages_Django-1_5_5-py2_7_egg_django_contrib_messages_storage___init__.html'
p371
sg32
S'/home/uss/Desktop/myWebDev/django-uss/lib/python2.7/site-packages/Django-1.5.5-py2.7.egg/django/contrib/messages/storage/__init__'
p372
sg34
g13
(g14
g15
NtRp373
(dp374
g18
I1
sg19
I0
sg20
I18
sg21
I0
sg22
I0
sg23
I6
sg24
I0
sbssg25
S'\xba\n\xa1\x1dc\r\xc3!Y\x02\x1c\x08\xd7Cr\xfd'
p375
ssS'_home_uss_Desktop_myWebDev_django-uss_lib_python2_7_site-packages_Django-1_5_5-py2_7_egg_django_db_models_loading'
p376
(dp377
g6
(dp378
g8
S'_home_uss_Desktop_myWebDev_django-uss_lib_python2_7_site-packages_Django-1_5_5-py2_7_egg_django_db_models_loading.html'
p379
sg10
S'/home/uss/Desktop/myWebDev/django-uss/lib/python2.7/site-packages/Django-1.5.5-py2.7.egg/django/db/models/loading'
p380
sg12
g13
(g14
g15
NtRp381
(dp382
g18
I1
sg19
I0
sg20
I121
sg21
I0
sg22
I0
sg23
I21
sg24
I0
sbssg25
S'\xa2\xc0_xE\x0b\xc4t;\xcf&\x83oRz\x94'
p383
ssS'_home_uss_Desktop_myWebDev_django-uss_lib_python2_7_site-packages_Django-1_5_5-py2_7_egg_django_test_simple'
p384
(dp385
g6
(dp386
g8
S'_home_uss_Desktop_myWebDev_django-uss_lib_python2_7_site-packages_Django-1_5_5-py2_7_egg_django_test_simple.html'
p387
sg10
S'/home/uss/Desktop/myWebDev/django-uss/lib/python2.7/site-packages/Django-1.5.5-py2.7.egg/django/test/simple'
p388
sg12
g13
(g14
g15
NtRp389
(dp390
g18
I1
sg19
I0
sg20
I192
sg21
I0
sg22
I0
sg23
I60
sg24
I0
sbssg25
S'\xf4\xd4S\x9d\x0f\xc3R%}\xf9!\xea\xd6\xd4\xa5G'
p391
ssS'_home_uss_Desktop_myWebDev_django-uss_lib_python2_7_site-packages_Django-1_5_5-py2_7_egg_django_template_loader_tags'
p392
(dp393
g6
(dp394
g30
S'_home_uss_Desktop_myWebDev_django-uss_lib_python2_7_site-packages_Django-1_5_5-py2_7_egg_django_template_loader_tags.html'
p395
sg32
S'/home/uss/Desktop/myWebDev/django-uss/lib/python2.7/site-packages/Django-1.5.5-py2.7.egg/django/template/loader_tags'
p396
sg34
g13
(g14
g15
NtRp397
(dp398
g18
I1
sg19
I0
sg20
I178
sg21
I0
sg22
I0
sg23
I79
sg24
I0
sbssg25
S'\x16\xb7v\xbf\x91\tKX\x1ba\xba\xc1\xae\x15\xc4$'
p399
ssS'_home_uss_Desktop_myWebDev_django-uss_lib_python2_7_site-packages_Django-1_5_5-py2_7_egg_django_core_serializers_xml_serializer'
p400
(dp401
g6
(dp402
g8
S'_home_uss_Desktop_myWebDev_django-uss_lib_python2_7_site-packages_Django-1_5_5-py2_7_egg_django_core_serializers_xml_serializer.html'
p403
sg10
S'/home/uss/Desktop/myWebDev/django-uss/lib/python2.7/site-packages/Django-1.5.5-py2.7.egg/django/core/serializers/xml_serializer'
p404
sg12
g13
(g14
g15
NtRp405
(dp406
g18
I1
sg19
I0
sg20
I209
sg21
I0
sg22
I0
sg23
I163
sg24
I0
sbssg25
S'D\x84+U\xaa{aF\x82\x85j,\x93x\xce\xa8'
p407
ssS'_home_uss_Desktop_myWebDev_django-uss_lib_python2_7_site-packages_Django-1_5_5-py2_7_egg_django_views_static'
p408
(dp409
g6
(dp410
g8
S'_home_uss_Desktop_myWebDev_django-uss_lib_python2_7_site-packages_Django-1_5_5-py2_7_egg_django_views_static.html'
p411
sg10
S'/home/uss/Desktop/myWebDev/django-uss/lib/python2.7/site-packages/Django-1.5.5-py2.7.egg/django/views/static'
p412
sg12
g13
(g14
g15
NtRp413
(dp414
g18
I1
sg19
I0
sg20
I76
sg21
I0
sg22
I0
sg23
I57
sg24
I0
sbssg25
S'\xd2\xfe\xdd\xc7\xb1\xa9"\x8e\xe1K~\xff\xb3g\xea\xd1'
p415
ssS'_home_uss_Desktop_myWebDev_django-uss_lib_python2_7_site-packages_Django-1_5_5-py2_7_egg_django_utils_itercompat'
p416
(dp417
g6
(dp418
g8
S'_home_uss_Desktop_myWebDev_django-uss_lib_python2_7_site-packages_Django-1_5_5-py2_7_egg_django_utils_itercompat.html'
p419
sg10
S'/home/uss/Desktop/myWebDev/django-uss/lib/python2.7/site-packages/Django-1.5.5-py2.7.egg/django/utils/itercompat'
p420
sg12
g13
(g14
g15
NtRp421
(dp422
g18
I1
sg19
I0
sg20
I23
sg21
I0
sg22
I0
sg23
I12
sg24
I0
sbssg25
S'\x89\xda\x9c\xeax\xbe\xf7V]S\x1e\xf2\x17\x8f\xce\x88'
p423
ssS'_home_uss_Desktop_myWebDev_django-uss_lib_python2_7_site-packages_Django-1_5_5-py2_7_egg_django_utils_tree'
p424
(dp425
g6
(dp426
g8
S'_home_uss_Desktop_myWebDev_django-uss_lib_python2_7_site-packages_Django-1_5_5-py2_7_egg_django_utils_tree.html'
p427
sg10
S'/home/uss/Desktop/myWebDev/django-uss/lib/python2.7/site-packages/Django-1.5.5-py2.7.egg/django/utils/tree'
p428
sg12
g13
(g14
g15
NtRp429
(dp430
g18
I1
sg19
I0
sg20
I64
sg21
I0
sg22
I0
sg23
I18
sg24
I0
sbssg25
S'\x1b\x86X\x113H\x1c\x1f\x1e\xeb:\xa9\xc6\xe9\x10\xb6'
p431
ssS'_home_uss_Desktop_myWebDev_django-uss_lib_python2_7_site-packages_Django-1_5_5-py2_7_egg_django_core_cache_backends_db'
p432
(dp433
g6
(dp434
g8
S'_home_uss_Desktop_myWebDev_django-uss_lib_python2_7_site-packages_Django-1_5_5-py2_7_egg_django_core_cache_backends_db.html'
p435
sg10
S'/home/uss/Desktop/myWebDev/django-uss/lib/python2.7/site-packages/Django-1.5.5-py2.7.egg/django/core/cache/backends/db'
p436
sg12
g13
(g14
g15
NtRp437
(dp438
g18
I1
sg19
I0
sg20
I128
sg21
I0
sg22
I0
sg23
I103
sg24
I0
sbssg25
S'\x18Sqc@\x84\x05\x07\xfd"h\x9e\xf4\xb3\xbfp'
p439
ssS'_home_uss_Desktop_myWebDev_django-uss_lib_python2_7_site-packages_Django-1_5_5-py2_7_egg_django_core_validators'
p440
(dp441
g6
(dp442
g8
S'_home_uss_Desktop_myWebDev_django-uss_lib_python2_7_site-packages_Django-1_5_5-py2_7_egg_django_core_validators.html'
p443
sg10
S'/home/uss/Desktop/myWebDev/django-uss/lib/python2.7/site-packages/Django-1.5.5-py2.7.egg/django/core/validators'
p444
sg12
g13
(g14
g15
NtRp445
(dp446
g18
I1
sg19
I0
sg20
I120
sg21
I0
sg22
I0
sg23
I51
sg24
I0
sbssg25
S'\xca\xb7=\xe8v\x8cR\xf1\x07\x95\x8f\\:"\xe7\xae'
p447
ssS'_home_uss_Desktop_myWebDev_django-uss_lib_python2_7_site-packages_Django-1_5_5-py2_7_egg_django_core_management_validation'
p448
(dp449
g6
(dp450
g8
S'_home_uss_Desktop_myWebDev_django-uss_lib_python2_7_site-packages_Django-1_5_5-py2_7_egg_django_core_management_validation.html'
p451
sg10
S'/home/uss/Desktop/myWebDev/django-uss/lib/python2.7/site-packages/Django-1.5.5-py2.7.egg/django/core/management/validation'
p452
sg12
g13
(g14
g15
NtRp453
(dp454
g18
I1
sg19
I0
sg20
I246
sg21
I0
sg22
I0
sg23
I121
sg24
I0
sbssg25
S'\x10 \x00\xba~\x0e\xc1Cyc\xf5\xc7V\xddF\xb4'
p455
ssS'_home_uss_Desktop_myWebDev_django-uss_lib_python2_7_site-packages_Django-1_5_5-py2_7_egg_django_forms_formsets'
p456
(dp457
g6
(dp458
g8
S'_home_uss_Desktop_myWebDev_django-uss_lib_python2_7_site-packages_Django-1_5_5-py2_7_egg_django_forms_formsets.html'
p459
sg10
S'/home/uss/Desktop/myWebDev/django-uss/lib/python2.7/site-packages/Django-1.5.5-py2.7.egg/django/forms/formsets'
p460
sg12
g13
(g14
g15
NtRp461
(dp462
g18
I1
sg19
I0
sg20
I212
sg21
I0
sg22
I0
sg23
I155
sg24
I0
sbssg25
S'\xc8h\xd5+"\\_>]\x1c}\x99)\xc8%4'
p463
ssS'_home_uss_Desktop_myWebDev_django-uss_lib_python2_7_site-packages_Django-1_5_5-py2_7_egg_django_core_management_sql'
p464
(dp465
g6
(dp466
g8
S'_home_uss_Desktop_myWebDev_django-uss_lib_python2_7_site-packages_Django-1_5_5-py2_7_egg_django_core_management_sql.html'
p467
sg10
S'/home/uss/Desktop/myWebDev/django-uss/lib/python2.7/site-packages/Django-1.5.5-py2.7.egg/django/core/management/sql'
p468
sg12
g13
(g14
g15
NtRp469
(dp470
g18
I1
sg19
I0
sg20
I115
sg21
I0
sg22
I0
sg23
I77
sg24
I0
sbssg25
S'\x1b\xea\x0eMq\xfe\xd2\x02z\xe7\x0c\xd0cV\xb7.'
p471
ssS'_home_uss_Desktop_myWebDev_django-uss_lib_python2_7_site-packages_Django-1_5_5-py2_7_egg_django_templatetags_static'
p472
(dp473
g6
(dp474
g30
S'_home_uss_Desktop_myWebDev_django-uss_lib_python2_7_site-packages_Django-1_5_5-py2_7_egg_django_templatetags_static.html'
p475
sg32
S'/home/uss/Desktop/myWebDev/django-uss/lib/python2.7/site-packages/Django-1.5.5-py2.7.egg/django/templatetags/static'
p476
sg34
g13
(g14
g15
NtRp477
(dp478
g18
I1
sg19
I0
sg20
I71
sg21
I0
sg22
I0
sg23
I27
sg24
I0
sbssg25
S'\xe9.\x1d0mk5\xa5u\x07\x98\xc7,\xc5\xf1\xb6'
p479
ssS'_home_uss_Desktop_myWebDev_django-uss_lib_python2_7_site-packages_Django-1_5_5-py2_7_egg_django_utils_unittest_util'
p480
(dp481
g6
(dp482
g8
S'_home_uss_Desktop_myWebDev_django-uss_lib_python2_7_site-packages_Django-1_5_5-py2_7_egg_django_utils_unittest_util.html'
p483
sg10
S'/home/uss/Desktop/myWebDev/django-uss/lib/python2.7/site-packages/Django-1.5.5-py2.7.egg/django/utils/unittest/util'
p484
sg12
g13
(g14
g15
NtRp485
(dp486
g18
I1
sg19
I0
sg20
I74
sg21
I0
sg22
I0
sg23
I67
sg24
I0
sbssg25
S'\xb2x_,\x84YY\x16\x91\xcb5(\xe8\x1c<\t'
p487
ssS'_home_uss_Desktop_myWebDev_django-uss_lib_python2_7_site-packages_Django-1_5_5-py2_7_egg_django_db_models_sql___init__'
p488
(dp489
g6
(dp490
g8
S'_home_uss_Desktop_myWebDev_django-uss_lib_python2_7_site-packages_Django-1_5_5-py2_7_egg_django_db_models_sql___init__.html'
p491
sg10
S'/home/uss/Desktop/myWebDev/django-uss/lib/python2.7/site-packages/Django-1.5.5-py2.7.egg/django/db/models/sql/__init__'
p492
sg12
g13
(g14
g15
NtRp493
(dp494
g18
I1
sg19
I0
sg20
I6
sg21
I0
sg22
I0
sg23
I0
sg24
I0
sbssg25
S'\xea\xf8\xff\x94\xe8\x06\xd7@N\x8e\xb9\x9b)&=f'
p495
ssS'_home_uss_Desktop_myWebDev_django-uss_lib_python2_7_site-packages_Django-1_5_5-py2_7_egg_django_template___init__'
p496
(dp497
g6
(dp498
g8
S'_home_uss_Desktop_myWebDev_django-uss_lib_python2_7_site-packages_Django-1_5_5-py2_7_egg_django_template___init__.html'
p499
sg10
S'/home/uss/Desktop/myWebDev/django-uss/lib/python2.7/site-packages/Django-1.5.5-py2.7.egg/django/template/__init__'
p500
sg12
g13
(g14
g15
NtRp501
(dp502
g18
I1
sg19
I0
sg20
I6
sg21
I0
sg22
I0
sg23
I0
sg24
I0
sbssg25
S'\xb6\xa0l\x13\xa8q\x87\r\xa8\xea\xdd\x99\xef\xf5k\xd3'
p503
ssS'_home_uss_Desktop_myWebDev_django-uss_lib_python2_7_site-packages_Django-1_5_5-py2_7_egg_django_db_models_fields_subclassing'
p504
(dp505
g6
(dp506
g8
S'_home_uss_Desktop_myWebDev_django-uss_lib_python2_7_site-packages_Django-1_5_5-py2_7_egg_django_db_models_fields_subclassing.html'
p507
sg10
S'/home/uss/Desktop/myWebDev/django-uss/lib/python2.7/site-packages/Django-1.5.5-py2.7.egg/django/db/models/fields/subclassing'
p508
sg12
g13
(g14
g15
NtRp509
(dp510
g18
I1
sg19
I0
sg20
I21
sg21
I0
sg22
I0
sg23
I14
sg24
I0
sbssg25
S' \xc8$\x1a\xca\xc6\xb9\n\xaew\xc3>\x8ej\x81b'
p511
ssS'_home_uss_Desktop_myWebDev_django-uss_lib_python2_7_site-packages_Django-1_5_5-py2_7_egg_django_contrib_sessions_backends_db'
p512
(dp513
g6
(dp514
g30
S'_home_uss_Desktop_myWebDev_django-uss_lib_python2_7_site-packages_Django-1_5_5-py2_7_egg_django_contrib_sessions_backends_db.html'
p515
sg32
S'/home/uss/Desktop/myWebDev/django-uss/lib/python2.7/site-packages/Django-1.5.5-py2.7.egg/django/contrib/sessions/backends/db'
p516
sg34
g13
(g14
g15
NtRp517
(dp518
g18
I1
sg19
I0
sg20
I50
sg21
I0
sg22
I0
sg23
I36
sg24
I0
sbssg25
S'\x9ezO\xb5&:_U-2K,?\xcd\x99\xf5'
p519
ssS'_home_uss_Desktop_myWebDev_django-uss_lib_python2_7_site-packages_Django-1_5_5-py2_7_egg_django_contrib_staticfiles_storage'
p520
(dp521
g6
(dp522
g8
S'_home_uss_Desktop_myWebDev_django-uss_lib_python2_7_site-packages_Django-1_5_5-py2_7_egg_django_contrib_staticfiles_storage.html'
p523
sg10
S'/home/uss/Desktop/myWebDev/django-uss/lib/python2.7/site-packages/Django-1.5.5-py2.7.egg/django/contrib/staticfiles/storage'
p524
sg12
g13
(g14
g15
NtRp525
(dp526
g18
I1
sg19
I0
sg20
I181
sg21
I0
sg22
I0
sg23
I138
sg24
I0
sbssg25
S'\x82\x1b\x1e\xcb\n\xd3\xd9\x94\tb\x06})\xa3o\xa3'
p527
ssS'_home_uss_Desktop_myWebDev_django-uss_lib_python2_7_site-packages_Django-1_5_5-py2_7_egg_django_core_servers_basehttp'
p528
(dp529
g6
(dp530
g8
S'_home_uss_Desktop_myWebDev_django-uss_lib_python2_7_site-packages_Django-1_5_5-py2_7_egg_django_core_servers_basehttp.html'
p531
sg10
S'/home/uss/Desktop/myWebDev/django-uss/lib/python2.7/site-packages/Django-1.5.5-py2.7.egg/django/core/servers/basehttp'
p532
sg12
g13
(g14
g15
NtRp533
(dp534
g18
I1
sg19
I0
sg20
I106
sg21
I0
sg22
I0
sg23
I74
sg24
I0
sbssg25
S'\xe1\x10\x8dLWO]\x8fL\x8e\xf2\xa7X\x9e"j'
p535
ssS'_home_uss_Desktop_myWebDev_django-uss_lib_python2_7_site-packages_Django-1_5_5-py2_7_egg_django_core_cache_backends_base'
p536
(dp537
g6
(dp538
g8
S'_home_uss_Desktop_myWebDev_django-uss_lib_python2_7_site-packages_Django-1_5_5-py2_7_egg_django_core_cache_backends_base.html'
p539
sg10
S'/home/uss/Desktop/myWebDev/django-uss/lib/python2.7/site-packages/Django-1.5.5-py2.7.egg/django/core/cache/backends/base'
p540
sg12
g13
(g14
g15
NtRp541
(dp542
g18
I1
sg19
I0
sg20
I99
sg21
I0
sg22
I0
sg23
I54
sg24
I0
sbssg25
S"Z\x10\x8f\xfa\xa3\x15G[\x9d\xb972'\xfe_\xbb"
p543
ssS'_home_uss_Desktop_myWebDev_django-uss_lib_python2_7_site-packages_Django-1_5_5-py2_7_egg_django_core_files_uploadedfile'
p544
(dp545
g6
(dp546
g8
S'_home_uss_Desktop_myWebDev_django-uss_lib_python2_7_site-packages_Django-1_5_5-py2_7_egg_django_core_files_uploadedfile.html'
p547
sg10
S'/home/uss/Desktop/myWebDev/django-uss/lib/python2.7/site-packages/Django-1.5.5-py2.7.egg/django/core/files/uploadedfile'
p548
sg12
g13
(g14
g15
NtRp549
(dp550
g18
I1
sg19
I0
sg20
I60
sg21
I0
sg22
I0
sg23
I32
sg24
I0
sbssg25
S'\xf9\x14\xfc\xaeej\x98\x970T\xbd\x8e\x1a$\xedq'
p551
ssS'_home_uss_Desktop_myWebDev_django-uss_lib_python2_7_site-packages_Django-1_5_5-py2_7_egg_django_core_files_uploadhandler'
p552
(dp553
g6
(dp554
g8
S'_home_uss_Desktop_myWebDev_django-uss_lib_python2_7_site-packages_Django-1_5_5-py2_7_egg_django_core_files_uploadhandler.html'
p555
sg10
S'/home/uss/Desktop/myWebDev/django-uss/lib/python2.7/site-packages/Django-1.5.5-py2.7.egg/django/core/files/uploadhandler'
p556
sg12
g13
(g14
g15
NtRp557
(dp558
g18
I1
sg19
I0
sg20
I89
sg21
I0
sg22
I0
sg23
I52
sg24
I0
sbssg25
S'\x17o\xc8\xfb\xe9\x8c\xc9:\x13Q0\x86\x02\x91m\xb4'
p559
ssS'_home_uss_Desktop_myWebDev_django-uss_lib_python2_7_site-packages_Django-1_5_5-py2_7_egg_django_core_files_temp'
p560
(dp561
g6
(dp562
g8
S'_home_uss_Desktop_myWebDev_django-uss_lib_python2_7_site-packages_Django-1_5_5-py2_7_egg_django_core_files_temp.html'
p563
sg10
S'/home/uss/Desktop/myWebDev/django-uss/lib/python2.7/site-packages/Django-1.5.5-py2.7.egg/django/core/files/temp'
p564
sg12
g13
(g14
g15
NtRp565
(dp566
g18
I1
sg19
I0
sg20
I28
sg21
I0
sg22
I0
sg23
I21
sg24
I0
sbssg25
S'\x14%Z\x18\x8e\x18K\xa3Y\x1f\xa7\x988\xdc)X'
p567
ssS'_home_uss_Desktop_myWebDev_django-uss_lib_python2_7_site-packages_Django-1_5_5-py2_7_egg_django_contrib_contenttypes_management'
p568
(dp569
g6
(dp570
g8
S'_home_uss_Desktop_myWebDev_django-uss_lib_python2_7_site-packages_Django-1_5_5-py2_7_egg_django_contrib_contenttypes_management.html'
p571
sg10
S'/home/uss/Desktop/myWebDev/django-uss/lib/python2.7/site-packages/Django-1.5.5-py2.7.egg/django/contrib/contenttypes/management'
p572
sg12
g13
(g14
g15
NtRp573
(dp574
g18
I1
sg19
I0
sg20
I40
sg21
I0
sg22
I0
sg23
I17
sg24
I0
sbssg25
S'\xe071\x8b\x81A=\xee\xc7+(G\xaa\x12\xb3('
p575
ssS'_home_uss_Desktop_myWebDev_django-uss_lib_python2_7_site-packages_Django-1_5_5-py2_7_egg_django_conf_locale___init__'
p576
(dp577
g6
(dp578
g8
S'_home_uss_Desktop_myWebDev_django-uss_lib_python2_7_site-packages_Django-1_5_5-py2_7_egg_django_conf_locale___init__.html'
p579
sg10
S'/home/uss/Desktop/myWebDev/django-uss/lib/python2.7/site-packages/Django-1.5.5-py2.7.egg/django/conf/locale/__init__'
p580
sg12
g13
(g14
g15
NtRp581
(dp582
g18
I1
sg19
I0
sg20
I2
sg21
I0
sg22
I0
sg23
I0
sg24
I0
sbssg25
S'\xae\x8bs5R\x03qS)\xeb\xee\x03\x93\xa1&<'
p583
ssS'_home_uss_Desktop_myWebDev_django-uss_lib_python2_7_site-packages_Django-1_5_5-py2_7_egg_django_db_models_options'
p584
(dp585
g6
(dp586
g8
S'_home_uss_Desktop_myWebDev_django-uss_lib_python2_7_site-packages_Django-1_5_5-py2_7_egg_django_db_models_options.html'
p587
sg10
S'/home/uss/Desktop/myWebDev/django-uss/lib/python2.7/site-packages/Django-1.5.5-py2.7.egg/django/db/models/options'
p588
sg12
g13
(g14
g15
NtRp589
(dp590
g18
I1
sg19
I0
sg20
I338
sg21
I0
sg22
I0
sg23
I85
sg24
I0
sbssg25
S'\x8f\xc6\rs5\x9d~\x1e\xf5\x036\xbaX\xbb\x98\x0c'
p591
ssS'_home_uss_Desktop_myWebDev_django-uss_lib_python2_7_site-packages_Django-1_5_5-py2_7_egg_django_core_files_locks'
p592
(dp593
g6
(dp594
g8
S'_home_uss_Desktop_myWebDev_django-uss_lib_python2_7_site-packages_Django-1_5_5-py2_7_egg_django_core_files_locks.html'
p595
sg10
S'/home/uss/Desktop/myWebDev/django-uss/lib/python2.7/site-packages/Django-1.5.5-py2.7.egg/django/core/files/locks'
p596
sg12
g13
(g14
g15
NtRp597
(dp598
g18
I1
sg19
I0
sg20
I40
sg21
I0
sg22
I0
sg23
I23
sg24
I0
sbssg25
S'\xce}lA\x9d\xae\x8f[oRM\xb4\x9aI[\xf4'
p599
ssS'_home_uss_Desktop_myWebDev_django-uss_lib_python2_7_site-packages_Django-1_5_5-py2_7_egg_django_forms_models'
p600
(dp601
g6
(dp602
g8
S'_home_uss_Desktop_myWebDev_django-uss_lib_python2_7_site-packages_Django-1_5_5-py2_7_egg_django_forms_models.html'
p603
sg10
S'/home/uss/Desktop/myWebDev/django-uss/lib/python2.7/site-packages/Django-1.5.5-py2.7.egg/django/forms/models'
p604
sg12
g13
(g14
g15
NtRp605
(dp606
g18
I1
sg19
I0
sg20
I588
sg21
I0
sg22
I0
sg23
I435
sg24
I0
sbssg25
S'An\x9fh\xc2\xb8\xb8#\xbb\xd0B\xd6\xb9\x88E\xf6'
p607
ssS'_home_uss_Desktop_myWebDev_django-uss_lib_python2_7_site-packages_Django-1_5_5-py2_7_egg_django_core_wsgi'
p608
(dp609
g6
(dp610
g8
S'_home_uss_Desktop_myWebDev_django-uss_lib_python2_7_site-packages_Django-1_5_5-py2_7_egg_django_core_wsgi.html'
p611
sg10
S'/home/uss/Desktop/myWebDev/django-uss/lib/python2.7/site-packages/Django-1.5.5-py2.7.egg/django/core/wsgi'
p612
sg12
g13
(g14
g15
NtRp613
(dp614
g18
I1
sg19
I0
sg20
I3
sg21
I0
sg22
I0
sg23
I1
sg24
I0
sbssg25
S' \x0e\x1b\xd1D\xd0\x13<c\x84?v\xdf\xd1\xf8\x84'
p615
ssS'_home_uss_Desktop_myWebDev_django-uss_lib_python2_7_site-packages_Django-1_5_5-py2_7_egg_django_core_serializers_python'
p616
(dp617
g6
(dp618
g8
S'_home_uss_Desktop_myWebDev_django-uss_lib_python2_7_site-packages_Django-1_5_5-py2_7_egg_django_core_serializers_python.html'
p619
sg10
S'/home/uss/Desktop/myWebDev/django-uss/lib/python2.7/site-packages/Django-1.5.5-py2.7.egg/django/core/serializers/python'
p620
sg12
g13
(g14
g15
NtRp621
(dp622
g18
I1
sg19
I0
sg20
I86
sg21
I0
sg22
I0
sg23
I67
sg24
I0
sbssg25
S"\xcf\xb3s\n\xa1\x83\xbc\xc1\xe4W\xfe2'\xb9b\xce"
p623
ssS'_home_uss_Desktop_myWebDev_django-uss_lib_python2_7_site-packages_Django-1_5_5-py2_7_egg_django_contrib_auth_models'
p624
(dp625
g6
(dp626
g8
S'_home_uss_Desktop_myWebDev_django-uss_lib_python2_7_site-packages_Django-1_5_5-py2_7_egg_django_contrib_auth_models.html'
p627
sg10
S'/home/uss/Desktop/myWebDev/django-uss/lib/python2.7/site-packages/Django-1.5.5-py2.7.egg/django/contrib/auth/models'
p628
sg12
g13
(g14
g15
NtRp629
(dp630
g18
I1
sg19
I0
sg20
I270
sg21
I0
sg22
I0
sg23
I127
sg24
I0
sbssg25
S"'\x8aRFk\x9f~\xd8\x7f\xc6U\xd3\xf8(Dn"
p631
ssS'_home_uss_Desktop_myWebDev_django-uss_lib_python2_7_site-packages_Django-1_5_5-py2_7_egg_django_db_models_query_utils'
p632
(dp633
g6
(dp634
g8
S'_home_uss_Desktop_myWebDev_django-uss_lib_python2_7_site-packages_Django-1_5_5-py2_7_egg_django_db_models_query_utils.html'
p635
sg10
S'/home/uss/Desktop/myWebDev/django-uss/lib/python2.7/site-packages/Django-1.5.5-py2.7.egg/django/db/models/query_utils'
p636
sg12
g13
(g14
g15
NtRp637
(dp638
g18
I1
sg19
I0
sg20
I92
sg21
I0
sg22
I0
sg23
I65
sg24
I0
sbssg25
S'o\xa7\xc3\x81\x989\n\xc7m\xee~\xcas\x08Ak'
p639
ssS'_home_uss_Desktop_myWebDev_django-uss_lib_python2_7_site-packages_Django-1_5_5-py2_7_egg_django_core_handlers___init__'
p640
(dp641
g6
(dp642
g8
S'_home_uss_Desktop_myWebDev_django-uss_lib_python2_7_site-packages_Django-1_5_5-py2_7_egg_django_core_handlers___init__.html'
p643
sg10
S'/home/uss/Desktop/myWebDev/django-uss/lib/python2.7/site-packages/Django-1.5.5-py2.7.egg/django/core/handlers/__init__'
p644
sg12
g13
(g14
g15
NtRp645
(dp646
g18
I1
sg19
I0
sg20
I0
sg21
I0
sg22
I0
sg23
I0
sg24
I0
sbssg25
S'\xb0\xc8pN\xaf>\xa0\xbaz\x144\xe0A9\xb8?'
p647
ssS'_home_uss_Desktop_myWebDev_django-uss_lib_python2_7_site-packages_Django-1_5_5-py2_7_egg_django_template_loader'
p648
(dp649
g6
(dp650
g30
S'_home_uss_Desktop_myWebDev_django-uss_lib_python2_7_site-packages_Django-1_5_5-py2_7_egg_django_template_loader.html'
p651
sg32
S'/home/uss/Desktop/myWebDev/django-uss/lib/python2.7/site-packages/Django-1.5.5-py2.7.egg/django/template/loader'
p652
sg34
g13
(g14
g15
NtRp653
(dp654
g18
I1
sg19
I0
sg20
I105
sg21
I0
sg22
I0
sg23
I37
sg24
I0
sbssg25
S'\xfb\xf8R}Z2\xb4\xac\xeb\xe4\x0ft\xe1kmL'
p655
ssS'_home_uss_Desktop_myWebDev_django-uss_lib_python2_7_site-packages_Django-1_5_5-py2_7_egg_django_http_multipartparser'
p656
(dp657
g6
(dp658
g8
S'_home_uss_Desktop_myWebDev_django-uss_lib_python2_7_site-packages_Django-1_5_5-py2_7_egg_django_http_multipartparser.html'
p659
sg10
S'/home/uss/Desktop/myWebDev/django-uss/lib/python2.7/site-packages/Django-1.5.5-py2.7.egg/django/http/multipartparser'
p660
sg12
g13
(g14
g15
NtRp661
(dp662
g18
I1
sg19
I0
sg20
I348
sg21
I0
sg22
I0
sg23
I296
sg24
I0
sbssg25
S'\x90\xcc\xa5\x82\xa3\xfcp[\r\xadc%\xf6\x0e.\xb3'
p663
ssS'_home_uss_Desktop_myWebDev_django-uss_lib_python2_7_site-packages_Django-1_5_5-py2_7_egg_django_http_cookie'
p664
(dp665
g6
(dp666
g30
S'_home_uss_Desktop_myWebDev_django-uss_lib_python2_7_site-packages_Django-1_5_5-py2_7_egg_django_http_cookie.html'
p667
sg32
S'/home/uss/Desktop/myWebDev/django-uss/lib/python2.7/site-packages/Django-1.5.5-py2.7.egg/django/http/cookie'
p668
sg34
g13
(g14
g15
NtRp669
(dp670
g18
I1
sg19
I0
sg20
I53
sg21
I0
sg22
I0
sg23
I28
sg24
I0
sbssg25
S'}J\x8a\xde\xde\xb43ld\xea\x1d\x9f\xef\xb7 l'
p671
ssS'_home_uss_Desktop_myWebDev_django-uss_lib_python2_7_site-packages_Django-1_5_5-py2_7_egg_django_contrib_contenttypes___init__'
p672
(dp673
g6
(dp674
g8
S'_home_uss_Desktop_myWebDev_django-uss_lib_python2_7_site-packages_Django-1_5_5-py2_7_egg_django_contrib_contenttypes___init__.html'
p675
sg10
S'/home/uss/Desktop/myWebDev/django-uss/lib/python2.7/site-packages/Django-1.5.5-py2.7.egg/django/contrib/contenttypes/__init__'
p676
sg12
g13
(g14
g15
NtRp677
(dp678
g18
I1
sg19
I0
sg20
I0
sg21
I0
sg22
I0
sg23
I0
sg24
I0
sbssg25
S'\xb0\xc8pN\xaf>\xa0\xbaz\x144\xe0A9\xb8?'
p679
ssS'_home_uss_Desktop_myWebDev_django-uss_lib_python2_7_site-packages_Django-1_5_5-py2_7_egg_django_db_models_sql_constants'
p680
(dp681
g6
(dp682
g8
S'_home_uss_Desktop_myWebDev_django-uss_lib_python2_7_site-packages_Django-1_5_5-py2_7_egg_django_db_models_sql_constants.html'
p683
sg10
S'/home/uss/Desktop/myWebDev/django-uss/lib/python2.7/site-packages/Django-1.5.5-py2.7.egg/django/db/models/sql/constants'
p684
sg12
g13
(g14
g15
NtRp685
(dp686
g18
I1
sg19
I0
sg20
I9
sg21
I0
sg22
I0
sg23
I0
sg24
I0
sbssg25
S']V9\xa6\xadN\xb7\x17\x9du(\xa5-\x93\xba\xc0'
p687
ssS'_home_uss_Desktop_myWebDev_django-uss_lib_python2_7_site-packages_Django-1_5_5-py2_7_egg_django_contrib_messages_middleware'
p688
(dp689
g120
(dp690
g30
S'_home_uss_Desktop_myWebDev_django-uss_lib_python2_7_site-packages_Django-1_5_5-py2_7_egg_django_contrib_messages_middleware.html'
p691
sg32
S'/home/uss/Desktop/myWebDev/django-uss/lib/python2.7/site-packages/Django-1.5.5-py2.7.egg/django/contrib/messages/middleware'
p692
sg34
g13
(g14
g15
NtRp693
(dp694
g18
I1
sg19
I0
sg20
I11
sg21
I0
sg22
I0
sg23
I1
sg24
I0
sbssg126
S'Ck\x91\x91\x8c\xffq\xa6?\x04\x83\xb5Q\x8eJ\xca'
p695
ssS'_home_uss_Desktop_myWebDev_django-uss_lib_python2_7_site-packages_Django-1_5_5-py2_7_egg_django_utils_translation_trans_real'
p696
(dp697
g6
(dp698
g8
S'_home_uss_Desktop_myWebDev_django-uss_lib_python2_7_site-packages_Django-1_5_5-py2_7_egg_django_utils_translation_trans_real.html'
p699
sg10
S'/home/uss/Desktop/myWebDev/django-uss/lib/python2.7/site-packages/Django-1.5.5-py2.7.egg/django/utils/translation/trans_real'
p700
sg12
g13
(g14
g15
NtRp701
(dp702
g18
I1
sg19
I0
sg20
I366
sg21
I0
sg22
I0
sg23
I228
sg24
I0
sbssg25
S'\xf9\xb1\xd8\xde;\t\xb8[Z(\x15\xa3?(\xf1\xcb'
p703
ssS'_home_uss_Desktop_myWebDev_django-uss_lib_python2_7_site-packages_Django-1_5_5-py2_7_egg_django_db_backends_sqlite3___init__'
p704
(dp705
g6
(dp706
g8
S'_home_uss_Desktop_myWebDev_django-uss_lib_python2_7_site-packages_Django-1_5_5-py2_7_egg_django_db_backends_sqlite3___init__.html'
p707
sg10
S'/home/uss/Desktop/myWebDev/django-uss/lib/python2.7/site-packages/Django-1.5.5-py2.7.egg/django/db/backends/sqlite3/__init__'
p708
sg12
g13
(g14
g15
NtRp709
(dp710
g18
I1
sg19
I0
sg20
I0
sg21
I0
sg22
I0
sg23
I0
sg24
I0
sbssg25
S'\xb0\xc8pN\xaf>\xa0\xbaz\x144\xe0A9\xb8?'
p711
ssS'_home_uss_Desktop_myWebDev_django-uss_lib_python2_7_site-packages_Django-1_5_5-py2_7_egg_django_core_files_storage'
p712
(dp713
g6
(dp714
g8
S'_home_uss_Desktop_myWebDev_django-uss_lib_python2_7_site-packages_Django-1_5_5-py2_7_egg_django_core_files_storage.html'
p715
sg10
S'/home/uss/Desktop/myWebDev/django-uss/lib/python2.7/site-packages/Django-1.5.5-py2.7.egg/django/core/files/storage'
p716
sg12
g13
(g14
g15
NtRp717
(dp718
g18
I1
sg19
I0
sg20
I160
sg21
I0
sg22
I0
sg23
I111
sg24
I0
sbssg25
S'\xaf\xf3\x1f\xb1]\t{\x1b\x1eLf\xf4,\xfe\x06M'
p719
ssS'_home_uss_Desktop_myWebDev_django-uss_lib_python2_7_site-packages_Django-1_5_5-py2_7_egg_django_contrib_auth_admin'
p720
(dp721
g120
(dp722
g30
S'_home_uss_Desktop_myWebDev_django-uss_lib_python2_7_site-packages_Django-1_5_5-py2_7_egg_django_contrib_auth_admin.html'
p723
sg32
S'/home/uss/Desktop/myWebDev/django-uss/lib/python2.7/site-packages/Django-1.5.5-py2.7.egg/django/contrib/auth/admin'
p724
sg34
g13
(g14
g15
NtRp725
(dp726
g18
I1
sg19
I0
sg20
I93
sg21
I0
sg22
I0
sg23
I43
sg24
I0
sbssg126
S'1\x93\x8d\x08}\xbe\xe0\xbd;\x15\xd6/\xe7Q\x97\x8f'
p727
ssS'_home_uss_Desktop_myWebDev_django-uss_lib_python2_7_site-packages_Django-1_5_5-py2_7_egg_django_core_files_move'
p728
(dp729
g6
(dp730
g8
S'_home_uss_Desktop_myWebDev_django-uss_lib_python2_7_site-packages_Django-1_5_5-py2_7_egg_django_core_files_move.html'
p731
sg10
S'/home/uss/Desktop/myWebDev/django-uss/lib/python2.7/site-packages/Django-1.5.5-py2.7.egg/django/core/files/move'
p732
sg12
g13
(g14
g15
NtRp733
(dp734
g18
I1
sg19
I0
sg20
I45
sg21
I0
sg22
I0
sg23
I38
sg24
I0
sbssg25
S'K)w2\x06y\x1c0\xe1\x95\xae\x19(\xb1\xa1\xa3'
p735
ssS'_home_uss_Desktop_myWebDev_django-uss_lib_python2_7_site-packages_Django-1_5_5-py2_7_egg_django_core_management_base'
p736
(dp737
g6
(dp738
g8
S'_home_uss_Desktop_myWebDev_django-uss_lib_python2_7_site-packages_Django-1_5_5-py2_7_egg_django_core_management_base.html'
p739
sg10
S'/home/uss/Desktop/myWebDev/django-uss/lib/python2.7/site-packages/Django-1.5.5-py2.7.egg/django/core/management/base'
p740
sg12
g13
(g14
g15
NtRp741
(dp742
g18
I1
sg19
I0
sg20
I139
sg21
I0
sg22
I0
sg23
I51
sg24
I0
sbssg25
S'\\\x1d\x9e\x8c\xd6K:\\\x18\xb4\x8d*k\xc0\x0cH'
p743
ssS'_home_uss_Desktop_myWebDev_django-uss_lib_python2_7_site-packages_Django-1_5_5-py2_7_egg_django_template_context'
p744
(dp745
g6
(dp746
g30
S'_home_uss_Desktop_myWebDev_django-uss_lib_python2_7_site-packages_Django-1_5_5-py2_7_egg_django_template_context.html'
p747
sg32
S'/home/uss/Desktop/myWebDev/django-uss/lib/python2.7/site-packages/Django-1.5.5-py2.7.egg/django/template/context'
p748
sg34
g13
(g14
g15
NtRp749
(dp750
g18
I1
sg19
I0
sg20
I114
sg21
I0
sg22
I0
sg23
I44
sg24
I0
sbssg25
S'\x80\xfa\xc8#\x89\x8a\x8e\x99\x0bB\xd0\xb4D\x19\x921'
p751
ssS'_home_uss_Desktop_myWebDev_django-uss_lib_python2_7_site-packages_Django-1_5_5-py2_7_egg_django_views_generic___init__'
p752
(dp753
g120
(dp754
g30
S'_home_uss_Desktop_myWebDev_django-uss_lib_python2_7_site-packages_Django-1_5_5-py2_7_egg_django_views_generic___init__.html'
p755
sg32
S'/home/uss/Desktop/myWebDev/django-uss/lib/python2.7/site-packages/Django-1.5.5-py2.7.egg/django/views/generic/__init__'
p756
sg34
g13
(g14
g15
NtRp757
(dp758
g18
I1
sg19
I0
sg20
I7
sg21
I0
sg22
I0
sg23
I0
sg24
I0
sbssg126
S'o\xbf\xb3bL\xcaf\x03j\xe6\xf7\x07\xe7C\x11\x83'
p759
ssS'_home_uss_Desktop_myWebDev_django-uss_lib_python2_7_site-packages_Django-1_5_5-py2_7_egg_django_views_debug'
p760
(dp761
g6
(dp762
g8
S'_home_uss_Desktop_myWebDev_django-uss_lib_python2_7_site-packages_Django-1_5_5-py2_7_egg_django_views_debug.html'
p763
sg10
S'/home/uss/Desktop/myWebDev/django-uss/lib/python2.7/site-packages/Django-1.5.5-py2.7.egg/django/views/debug'
p764
sg12
g13
(g14
g15
NtRp765
(dp766
g18
I1
sg19
I0
sg20
I276
sg21
I0
sg22
I0
sg23
I230
sg24
I0
sbssg25
S'\\\xab\xf7\x80PC\xcb5\x87\t\xb3f\xa1\xd2\xe1('
p767
ssS'_home_uss_Desktop_myWebDev_django-uss_lib_python2_7_site-packages_Django-1_5_5-py2_7_egg_django_contrib_sessions___init__'
p768
(dp769
g6
(dp770
g8
S'_home_uss_Desktop_myWebDev_django-uss_lib_python2_7_site-packages_Django-1_5_5-py2_7_egg_django_contrib_sessions___init__.html'
p771
sg10
S'/home/uss/Desktop/myWebDev/django-uss/lib/python2.7/site-packages/Django-1.5.5-py2.7.egg/django/contrib/sessions/__init__'
p772
sg12
g13
(g14
g15
NtRp773
(dp774
g18
I1
sg19
I0
sg20
I0
sg21
I0
sg22
I0
sg23
I0
sg24
I0
sbssg25
S'\xb0\xc8pN\xaf>\xa0\xbaz\x144\xe0A9\xb8?'
p775
ssS'_home_uss_Desktop_myWebDev_django-uss_lib_python2_7_site-packages_Django-1_5_5-py2_7_egg_django_shortcuts___init__'
p776
(dp777
g6
(dp778
g30
S'_home_uss_Desktop_myWebDev_django-uss_lib_python2_7_site-packages_Django-1_5_5-py2_7_egg_django_shortcuts___init__.html'
p779
sg32
S'/home/uss/Desktop/myWebDev/django-uss/lib/python2.7/site-packages/Django-1.5.5-py2.7.egg/django/shortcuts/__init__'
p780
sg34
g13
(g14
g15
NtRp781
(dp782
g18
I1
sg19
I0
sg20
I63
sg21
I0
sg22
I0
sg23
I44
sg24
I0
sbssg25
S'\x99\xd3,\xe0\xbam\xfb\x9c\x13\x1e\x84D\xa8U\x9d\xc2'
p783
ssS'_home_uss_Desktop_myWebDev_django-uss_lib_python2_7_site-packages_Django-1_5_5-py2_7_egg_django_db_backends___init__'
p784
(dp785
g6
(dp786
g30
S'_home_uss_Desktop_myWebDev_django-uss_lib_python2_7_site-packages_Django-1_5_5-py2_7_egg_django_db_backends___init__.html'
p787
sg32
S'/home/uss/Desktop/myWebDev/django-uss/lib/python2.7/site-packages/Django-1.5.5-py2.7.egg/django/db/backends/__init__'
p788
sg34
g13
(g14
g15
NtRp789
(dp790
g18
I1
sg19
I0
sg20
I451
sg21
I0
sg22
I0
sg23
I136
sg24
I0
sbssg25
S'\xcd\xd9dwy"H\xc5\x9d\x1b+\xc8huS\xdd'
p791
ssS'_home_uss_Desktop_myWebDev_django-uss_lib_python2_7_site-packages_Django-1_5_5-py2_7_egg_django_contrib_auth_middleware'
p792
(dp793
g120
(dp794
g30
S'_home_uss_Desktop_myWebDev_django-uss_lib_python2_7_site-packages_Django-1_5_5-py2_7_egg_django_contrib_auth_middleware.html'
p795
sg32
S'/home/uss/Desktop/myWebDev/django-uss/lib/python2.7/site-packages/Django-1.5.5-py2.7.egg/django/contrib/auth/middleware'
p796
sg34
g13
(g14
g15
NtRp797
(dp798
g18
I1
sg19
I0
sg20
I44
sg21
I0
sg22
I0
sg23
I30
sg24
I0
sbssg126
S'\x02\xe0\x95\xd7\xa4D\x86\xe1\xd0e\x1e\xe1J\x1c\x13\xbe'
p799
ssS'_home_uss_Desktop_myWebDev_django-uss_lib_python2_7_site-packages_Django-1_5_5-py2_7_egg_django_conf___init__'
p800
(dp801
g6
(dp802
g8
S'_home_uss_Desktop_myWebDev_django-uss_lib_python2_7_site-packages_Django-1_5_5-py2_7_egg_django_conf___init__.html'
p803
sg10
S'/home/uss/Desktop/myWebDev/django-uss/lib/python2.7/site-packages/Django-1.5.5-py2.7.egg/django/conf/__init__'
p804
sg12
g13
(g14
g15
NtRp805
(dp806
g18
I1
sg19
I0
sg20
I112
sg21
I0
sg22
I0
sg23
I39
sg24
I0
sbssg25
S'\xabm\xc4\x97\x01g\xea\xe7\xee\xcc\xbd\xff\x8bD\xb8\xa3'
p807
ssS'_home_uss_Desktop_myWebDev_django-uss_lib_python2_7_site-packages_Django-1_5_5-py2_7_egg_django_contrib_auth_management___init__'
p808
(dp809
g6
(dp810
g8
S'_home_uss_Desktop_myWebDev_django-uss_lib_python2_7_site-packages_Django-1_5_5-py2_7_egg_django_contrib_auth_management___init__.html'
p811
sg10
S'/home/uss/Desktop/myWebDev/django-uss/lib/python2.7/site-packages/Django-1.5.5-py2.7.egg/django/contrib/auth/management/__init__'
p812
sg12
g13
(g14
g15
NtRp813
(dp814
g18
I1
sg19
I0
sg20
I101
sg21
I0
sg22
I0
sg23
I51
sg24
I0
sbssg25
S'ko\x86\x1b\xcf\x9e~\x05d\xde\xe2\x94\xc0\x9b\xb4\xae'
p815
ssS'_home_uss_Desktop_myWebDev_django-uss_lib_python2_7_site-packages_Django-1_5_5-py2_7_egg_django_core_cache_backends_locmem'
p816
(dp817
g6
(dp818
g8
S'_home_uss_Desktop_myWebDev_django-uss_lib_python2_7_site-packages_Django-1_5_5-py2_7_egg_django_core_cache_backends_locmem.html'
p819
sg10
S'/home/uss/Desktop/myWebDev/django-uss/lib/python2.7/site-packages/Django-1.5.5-py2.7.egg/django/core/cache/backends/locmem'
p820
sg12
g13
(g14
g15
NtRp821
(dp822
g18
I1
sg19
I0
sg20
I119
sg21
I0
sg22
I0
sg23
I93
sg24
I0
sbssg25
S'\x9e5s\xf8EUb\xe7\xea$L25\x1c\xbc\xfc'
p823
ssS'_home_uss_Desktop_myWebDev_django-uss_lib_python2_7_site-packages_Django-1_5_5-py2_7_egg_django_contrib_sessions_middleware'
p824
(dp825
g120
(dp826
g30
S'_home_uss_Desktop_myWebDev_django-uss_lib_python2_7_site-packages_Django-1_5_5-py2_7_egg_django_contrib_sessions_middleware.html'
p827
sg32
S'/home/uss/Desktop/myWebDev/django-uss/lib/python2.7/site-packages/Django-1.5.5-py2.7.egg/django/contrib/sessions/middleware'
p828
sg34
g13
(g14
g15
NtRp829
(dp830
g18
I1
sg19
I0
sg20
I29
sg21
I0
sg22
I0
sg23
I11
sg24
I0
sbssg126
S'\x15\x8f\x15\xda\xcdi\xa05\x90}\x9f\xd6\xa6\xef\xfaN'
p831
ssS'django_test_urls'
p832
(dp833
g120
(dp834
g30
S'django_test_urls.html'
p835
sg32
S'django_test/urls'
p836
sg34
g13
(g14
g15
NtRp837
(dp838
g18
I1
sg19
I0
sg20
I5
sg21
I0
sg22
I0
sg23
I0
sg24
I0
sbssg126
S'\xdc\x05\xa8b\x0e\x9dz\x1dh\x06\x84\xb8\\}\xe7\x8b'
p839
ssS'_home_uss_Desktop_myWebDev_django-uss_lib_python2_7_site-packages_Django-1_5_5-py2_7_egg_django_db_models_sql_where'
p840
(dp841
g6
(dp842
g8
S'_home_uss_Desktop_myWebDev_django-uss_lib_python2_7_site-packages_Django-1_5_5-py2_7_egg_django_db_models_sql_where.html'
p843
sg10
S'/home/uss/Desktop/myWebDev/django-uss/lib/python2.7/site-packages/Django-1.5.5-py2.7.egg/django/db/models/sql/where'
p844
sg12
g13
(g14
g15
NtRp845
(dp846
g18
I1
sg19
I0
sg20
I201
sg21
I0
sg22
I0
sg23
I82
sg24
I0
sbssg25
S'\x80\xebjX5jQn-$\x17\xa9\xcf\xa3J\xa0'
p847
ssS'_home_uss_Desktop_myWebDev_django-uss_lib_python2_7_site-packages_Django-1_5_5-py2_7_egg_django_utils_six'
p848
(dp849
g6
(dp850
g8
S'_home_uss_Desktop_myWebDev_django-uss_lib_python2_7_site-packages_Django-1_5_5-py2_7_egg_django_utils_six.html'
p851
sg10
S'/home/uss/Desktop/myWebDev/django-uss/lib/python2.7/site-packages/Django-1.5.5-py2.7.egg/django/utils/six'
p852
sg12
g13
(g14
g15
NtRp853
(dp854
g18
I1
sg19
I0
sg20
I303
sg21
I0
sg22
I0
sg23
I131
sg24
I0
sbssg25
S'\xabF%\x8e=b\xdcjR\xd4\x06gqB\xd2\xfd'
p855
ssS'_home_uss_Desktop_myWebDev_django-uss_lib_python2_7_site-packages_Django-1_5_5-py2_7_egg_django_db_transaction'
p856
(dp857
g6
(dp858
g8
S'_home_uss_Desktop_myWebDev_django-uss_lib_python2_7_site-packages_Django-1_5_5-py2_7_egg_django_db_transaction.html'
p859
sg10
S'/home/uss/Desktop/myWebDev/django-uss/lib/python2.7/site-packages/Django-1.5.5-py2.7.egg/django/db/transaction'
p860
sg12
g13
(g14
g15
NtRp861
(dp862
g18
I1
sg19
I0
sg20
I135
sg21
I0
sg22
I0
sg23
I68
sg24
I0
sbssg25
S'\\\xf3\x10\x83d\xd7\x88\x94\xa2\x92?\x1b\xa4\x17\xd9;'
p863
ssS'_home_uss_Desktop_myWebDev_django-uss_lib_python2_7_site-packages_Django-1_5_5-py2_7_egg_django_db_models_deletion'
p864
(dp865
g6
(dp866
g8
S'_home_uss_Desktop_myWebDev_django-uss_lib_python2_7_site-packages_Django-1_5_5-py2_7_egg_django_db_models_deletion.html'
p867
sg10
S'/home/uss/Desktop/myWebDev/django-uss/lib/python2.7/site-packages/Django-1.5.5-py2.7.egg/django/db/models/deletion'
p868
sg12
g13
(g14
g15
NtRp869
(dp870
g18
I1
sg19
I0
sg20
I173
sg21
I0
sg22
I0
sg23
I142
sg24
I0
sbssg25
S'\x91\x11\xc1<"\xc6\xadr@\x82\xd9\x9eU\xd1%\xba'
p871
ssS'_home_uss_Desktop_myWebDev_django-uss_lib_python2_7_site-packages_Django-1_5_5-py2_7_egg_django_forms___init__'
p872
(dp873
g6
(dp874
g8
S'_home_uss_Desktop_myWebDev_django-uss_lib_python2_7_site-packages_Django-1_5_5-py2_7_egg_django_forms___init__.html'
p875
sg10
S'/home/uss/Desktop/myWebDev/django-uss/lib/python2.7/site-packages/Django-1.5.5-py2.7.egg/django/forms/__init__'
p876
sg12
g13
(g14
g15
NtRp877
(dp878
g18
I1
sg19
I0
sg20
I6
sg21
I0
sg22
I0
sg23
I0
sg24
I0
sbssg25
S"\xfb\x98'\xfe<\x95\xf2Q\xfe,\xaeF\t[\xfeP"
p879
ssS'_home_uss_Desktop_myWebDev_django-uss_lib_python2_7_site-packages_Django-1_5_5-py2_7_egg_django_contrib_staticfiles_finders'
p880
(dp881
g6
(dp882
g8
S'_home_uss_Desktop_myWebDev_django-uss_lib_python2_7_site-packages_Django-1_5_5-py2_7_egg_django_contrib_staticfiles_finders.html'
p883
sg10
S'/home/uss/Desktop/myWebDev/django-uss/lib/python2.7/site-packages/Django-1.5.5-py2.7.egg/django/contrib/staticfiles/finders'
p884
sg12
g13
(g14
g15
NtRp885
(dp886
g18
I1
sg19
I0
sg20
I159
sg21
I0
sg22
I0
sg23
I121
sg24
I0
sbssg25
S'\xa3\xd7I\x8a\tm\x1dh\xb0c\xf4\xe3\xf7hmh'
p887
ssS'_home_uss_Desktop_myWebDev_django-uss_lib_python2_7_site-packages_Django-1_5_5-py2_7_egg_django_core_serializers_json'
p888
(dp889
g6
(dp890
g8
S'_home_uss_Desktop_myWebDev_django-uss_lib_python2_7_site-packages_Django-1_5_5-py2_7_egg_django_core_serializers_json.html'
p891
sg10
S'/home/uss/Desktop/myWebDev/django-uss/lib/python2.7/site-packages/Django-1.5.5-py2.7.egg/django/core/serializers/json'
p892
sg12
g13
(g14
g15
NtRp893
(dp894
g18
I1
sg19
I0
sg20
I72
sg21
I0
sg22
I0
sg23
I53
sg24
I0
sbssg25
S'\xad)W\xfe\x175\xcb\x97\x8c\xca\x7fW\xde.3\x9d'
p895
ssS'_home_uss_Desktop_myWebDev_django-uss_lib_python2_7_site-packages_Django-1_5_5-py2_7_egg_django_test_testcases'
p896
(dp897
g6
(dp898
g8
S'_home_uss_Desktop_myWebDev_django-uss_lib_python2_7_site-packages_Django-1_5_5-py2_7_egg_django_test_testcases.html'
p899
sg10
S'/home/uss/Desktop/myWebDev/django-uss/lib/python2.7/site-packages/Django-1.5.5-py2.7.egg/django/test/testcases'
p900
sg12
g13
(g14
g15
NtRp901
(dp902
g18
I1
sg19
I0
sg20
I613
sg21
I0
sg22
I0
sg23
I419
sg24
I0
sbssg25
S'\xbe\xc7=}_D\xd6\xd6\xbeq\x96\x97(M\xe0\xfd'
p903
ssS'_home_uss_Desktop_myWebDev_django-uss_lib_python2_7_site-packages_Django-1_5_5-py2_7_egg_django_utils_module_loading'
p904
(dp905
g6
(dp906
g30
S'_home_uss_Desktop_myWebDev_django-uss_lib_python2_7_site-packages_Django-1_5_5-py2_7_egg_django_utils_module_loading.html'
p907
sg32
S'/home/uss/Desktop/myWebDev/django-uss/lib/python2.7/site-packages/Django-1.5.5-py2.7.egg/django/utils/module_loading'
p908
sg34
g13
(g14
g15
NtRp909
(dp910
g18
I1
sg19
I0
sg20
I66
sg21
I0
sg22
I0
sg23
I34
sg24
I0
sbssg25
S'\x01\x88\x0f<\xd8\x1b3z\xe6\xd3~\xd2\x8fF\xbfD'
p911
ssS'_home_uss_Desktop_myWebDev_django-uss_lib_python2_7_site-packages_Django-1_5_5-py2_7_egg_django_db_models_sql_subqueries'
p912
(dp913
g6
(dp914
g8
S'_home_uss_Desktop_myWebDev_django-uss_lib_python2_7_site-packages_Django-1_5_5-py2_7_egg_django_db_models_sql_subqueries.html'
p915
sg10
S'/home/uss/Desktop/myWebDev/django-uss/lib/python2.7/site-packages/Django-1.5.5-py2.7.egg/django/db/models/sql/subqueries'
p916
sg12
g13
(g14
g15
NtRp917
(dp918
g18
I1
sg19
I0
sg20
I136
sg21
I0
sg22
I0
sg23
I87
sg24
I0
sbssg25
S'_\x89=S\x89\x1do\xb387\x11<8\x83&\xba'
p919
ssS'_home_uss_Desktop_myWebDev_django-uss_lib_python2_7_site-packages_Django-1_5_5-py2_7_egg_django_db_models_expressions'
p920
(dp921
g6
(dp922
g8
S'_home_uss_Desktop_myWebDev_django-uss_lib_python2_7_site-packages_Django-1_5_5-py2_7_egg_django_db_models_expressions.html'
p923
sg10
S'/home/uss/Desktop/myWebDev/django-uss/lib/python2.7/site-packages/Django-1.5.5-py2.7.egg/django/db/models/expressions'
p924
sg12
g13
(g14
g15
NtRp925
(dp926
g18
I1
sg19
I0
sg20
I88
sg21
I0
sg22
I0
sg23
I47
sg24
I0
sbssg25
S'o\x0f\x167\x0fR:\xe4WS\xb0\x80\xa4Yfl'
p927
ssS'_home_uss_Desktop_myWebDev_django-uss_lib_python2_7_site-packages_Django-1_5_5-py2_7_egg_django_utils_ipv6'
p928
(dp929
g6
(dp930
g8
S'_home_uss_Desktop_myWebDev_django-uss_lib_python2_7_site-packages_Django-1_5_5-py2_7_egg_django_utils_ipv6.html'
p931
sg10
S'/home/uss/Desktop/myWebDev/django-uss/lib/python2.7/site-packages/Django-1.5.5-py2.7.egg/django/utils/ipv6'
p932
sg12
g13
(g14
g15
NtRp933
(dp934
g18
I1
sg19
I0
sg20
I108
sg21
I0
sg22
I0
sg23
I100
sg24
I0
sbssg25
S'\x19|P\xf8\x82\xf4q<E\xfd\r\xbc\xff\x08.S'
p935
ssS'_home_uss_Desktop_myWebDev_django-uss_lib_python2_7_site-packages_Django-1_5_5-py2_7_egg_django_contrib_auth_hashers'
p936
(dp937
g6
(dp938
g8
S'_home_uss_Desktop_myWebDev_django-uss_lib_python2_7_site-packages_Django-1_5_5-py2_7_egg_django_contrib_auth_hashers.html'
p939
sg10
S'/home/uss/Desktop/myWebDev/django-uss/lib/python2.7/site-packages/Django-1.5.5-py2.7.egg/django/contrib/auth/hashers'
p940
sg12
g13
(g14
g15
NtRp941
(dp942
g18
I1
sg19
I0
sg20
I231
sg21
I0
sg22
I0
sg23
I153
sg24
I0
sbssg25
S'\x99\xbe(\xa9\x93fI\x8c\xd0\xc2&\xa7\x8c\xe4-\xf4'
p943
ssS'_home_uss_Desktop_myWebDev_django-uss_lib_python2_7_site-packages_Django-1_5_5-py2_7_egg_django_contrib_sites_models'
p944
(dp945
g6
(dp946
g8
S'_home_uss_Desktop_myWebDev_django-uss_lib_python2_7_site-packages_Django-1_5_5-py2_7_egg_django_contrib_sites_models.html'
p947
sg10
S'/home/uss/Desktop/myWebDev/django-uss/lib/python2.7/site-packages/Django-1.5.5-py2.7.egg/django/contrib/sites/models'
p948
sg12
g13
(g14
g15
NtRp949
(dp950
g18
I1
sg19
I0
sg20
I58
sg21
I0
sg22
I0
sg23
I28
sg24
I0
sbssg25
S'\x15\x99o\x91D\xf0\xc9\x99\xa92\xa7\n\xbf\xc4)\xac'
p951
ssS'_home_uss_Desktop_myWebDev_django-uss_lib_python2_7_site-packages_Django-1_5_5-py2_7_egg_django_test_signals'
p952
(dp953
g6
(dp954
g8
S'_home_uss_Desktop_myWebDev_django-uss_lib_python2_7_site-packages_Django-1_5_5-py2_7_egg_django_test_signals.html'
p955
sg10
S'/home/uss/Desktop/myWebDev/django-uss/lib/python2.7/site-packages/Django-1.5.5-py2.7.egg/django/test/signals'
p956
sg12
g13
(g14
g15
NtRp957
(dp958
g18
I1
sg19
I0
sg20
I50
sg21
I0
sg22
I0
sg23
I35
sg24
I0
sbssg25
S'\xd2\xaet\x89\x93\xe1\xca\xecB\x94{\xfd$Boz'
p959
ssS'_home_uss_Desktop_myWebDev_django-uss_lib_python2_7_site-packages_Django-1_5_5-py2_7_egg_django_utils_synch'
p960
(dp961
g6
(dp962
g8
S'_home_uss_Desktop_myWebDev_django-uss_lib_python2_7_site-packages_Django-1_5_5-py2_7_egg_django_utils_synch.html'
p963
sg10
S'/home/uss/Desktop/myWebDev/django-uss/lib/python2.7/site-packages/Django-1.5.5-py2.7.egg/django/utils/synch'
p964
sg12
g13
(g14
g15
NtRp965
(dp966
g18
I1
sg19
I0
sg20
I59
sg21
I0
sg22
I0
sg23
I41
sg24
I0
sbssg25
S'\xe4\xa3PBK-)\xfe}"\xa7\xb5\x01\x8cz\x8d'
p967
ssS'_home_uss_Desktop_myWebDev_django-uss_lib_python2_7_site-packages_Django-1_5_5-py2_7_egg_django_core_signing'
p968
(dp969
g6
(dp970
g8
S'_home_uss_Desktop_myWebDev_django-uss_lib_python2_7_site-packages_Django-1_5_5-py2_7_egg_django_core_signing.html'
p971
sg10
S'/home/uss/Desktop/myWebDev/django-uss/lib/python2.7/site-packages/Django-1.5.5-py2.7.egg/django/core/signing'
p972
sg12
g13
(g14
g15
NtRp973
(dp974
g18
I1
sg19
I0
sg20
I96
sg21
I0
sg22
I0
sg23
I63
sg24
I0
sbssg25
S'\xd3GN\x9a\x06OH\x9a\xf4[\x8e\xc2C\xfb\x14,'
p975
ssS'_home_uss_Desktop_myWebDev_django-uss_lib_python2_7_site-packages_Django-1_5_5-py2_7_egg_django_contrib_contenttypes_models'
p976
(dp977
g6
(dp978
g8
S'_home_uss_Desktop_myWebDev_django-uss_lib_python2_7_site-packages_Django-1_5_5-py2_7_egg_django_contrib_contenttypes_models.html'
p979
sg10
S'/home/uss/Desktop/myWebDev/django-uss/lib/python2.7/site-packages/Django-1.5.5-py2.7.egg/django/contrib/contenttypes/models'
p980
sg12
g13
(g14
g15
NtRp981
(dp982
g18
I1
sg19
I0
sg20
I98
sg21
I0
sg22
I0
sg23
I48
sg24
I0
sbssg25
S'\x03\x16\x93\xb8\x04M$\xc4D$\x9a\x14q\xf2I3'
p983
ssS'_home_uss_Desktop_myWebDev_django-uss_lib_python2_7_site-packages_Django-1_5_5-py2_7_egg_django_core_management_commands_syncdb'
p984
(dp985
g6
(dp986
g8
S'_home_uss_Desktop_myWebDev_django-uss_lib_python2_7_site-packages_Django-1_5_5-py2_7_egg_django_core_management_commands_syncdb.html'
p987
sg10
S'/home/uss/Desktop/myWebDev/django-uss/lib/python2.7/site-packages/Django-1.5.5-py2.7.egg/django/core/management/commands/syncdb'
p988
sg12
g13
(g14
g15
NtRp989
(dp990
g18
I1
sg19
I0
sg20
I99
sg21
I0
sg22
I0
sg23
I20
sg24
I0
sbssg25
S'L\xd0\xd9\xf5\x1f.\x1e\x06\xfa]\xfd\t\x1eO/\x83'
p991
ssS'article_models'
p992
(dp993
g6
(dp994
g30
S'article_models.html'
p995
sg32
S'article/models'
p996
sg34
g13
(g14
g15
NtRp997
(dp998
g18
I1
sg19
I0
sg20
I19
sg21
I0
sg22
I0
sg23
I0
sg24
I0
sbssg25
S'&\xfe\xc1\x94\xf4\xc4;\xbdn\xd6\xed\xf9\xd4\xfa/\x1c'
p999
ssS'_home_uss_Desktop_myWebDev_django-uss_lib_python2_7_site-packages_Django-1_5_5-py2_7_egg_django_views_generic_list'
p1000
(dp1001
g120
(dp1002
g30
S'_home_uss_Desktop_myWebDev_django-uss_lib_python2_7_site-packages_Django-1_5_5-py2_7_egg_django_views_generic_list.html'
p1003
sg32
S'/home/uss/Desktop/myWebDev/django-uss/lib/python2.7/site-packages/Django-1.5.5-py2.7.egg/django/views/generic/list'
p1004
sg34
g13
(g14
g15
NtRp1005
(dp1006
g18
I1
sg19
I0
sg20
I86
sg21
I0
sg22
I0
sg23
I59
sg24
I0
sbssg126
S'\xc8^GY\x96r\x9ap\xb6\xc5\x8dT1:N\xc4'
p1007
ssS'_home_uss_Desktop_myWebDev_django-uss_lib_python2_7_site-packages_Django-1_5_5-py2_7_egg_django_contrib_sites___init__'
p1008
(dp1009
g6
(dp1010
g8
S'_home_uss_Desktop_myWebDev_django-uss_lib_python2_7_site-packages_Django-1_5_5-py2_7_egg_django_contrib_sites___init__.html'
p1011
sg10
S'/home/uss/Desktop/myWebDev/django-uss/lib/python2.7/site-packages/Django-1.5.5-py2.7.egg/django/contrib/sites/__init__'
p1012
sg12
g13
(g14
g15
NtRp1013
(dp1014
g18
I1
sg19
I0
sg20
I0
sg21
I0
sg22
I0
sg23
I0
sg24
I0
sbssg25
S'\xb0\xc8pN\xaf>\xa0\xbaz\x144\xe0A9\xb8?'
p1015
ssS'_home_uss_Desktop_myWebDev_django-uss_lib_python2_7_site-packages_Django-1_5_5-py2_7_egg_django_core_serializers_base'
p1016
(dp1017
g6
(dp1018
g8
S'_home_uss_Desktop_myWebDev_django-uss_lib_python2_7_site-packages_Django-1_5_5-py2_7_egg_django_core_serializers_base.html'
p1019
sg10
S'/home/uss/Desktop/myWebDev/django-uss/lib/python2.7/site-packages/Django-1.5.5-py2.7.egg/django/core/serializers/base'
p1020
sg12
g13
(g14
g15
NtRp1021
(dp1022
g18
I1
sg19
I0
sg20
I77
sg21
I0
sg22
I0
sg23
I49
sg24
I0
sbssg25
S'\x9f\xf8\xb9\x97/\x18\xcd\xb5\tJ\x96$\xbb\xe8U\xd5'
p1023
ssS'_home_uss_Desktop_myWebDev_django-uss_lib_python2_7_site-packages_Django-1_5_5-py2_7_egg_django_utils_baseconv'
p1024
(dp1025
g6
(dp1026
g8
S'_home_uss_Desktop_myWebDev_django-uss_lib_python2_7_site-packages_Django-1_5_5-py2_7_egg_django_utils_baseconv.html'
p1027
sg10
S'/home/uss/Desktop/myWebDev/django-uss/lib/python2.7/site-packages/Django-1.5.5-py2.7.egg/django/utils/baseconv'
p1028
sg12
g13
(g14
g15
NtRp1029
(dp1030
g18
I1
sg19
I0
sg20
I48
sg21
I0
sg22
I0
sg23
I25
sg24
I0
sbssg25
S'\xb2\x0b\x94|\xcd\x96\xf2\xa9r)h\x95\xb7\x97B\xe5'
p1031
ssS'_home_uss_Desktop_myWebDev_django-uss_lib_python2_7_site-packages_Django-1_5_5-py2_7_egg_django_http_utils'
p1032
(dp1033
g6
(dp1034
g30
S'_home_uss_Desktop_myWebDev_django-uss_lib_python2_7_site-packages_Django-1_5_5-py2_7_egg_django_http_utils.html'
p1035
sg32
S'/home/uss/Desktop/myWebDev/django-uss/lib/python2.7/site-packages/Django-1.5.5-py2.7.egg/django/http/utils'
p1036
sg34
g13
(g14
g15
NtRp1037
(dp1038
g18
I1
sg19
I0
sg20
I43
sg21
I0
sg22
I0
sg23
I28
sg24
I0
sbssg25
S'x<M\xfe\xd0\x8b@\xf8\xf4\xaa\x18\xe5\xb2@m\xc2'
p1039
ssS'_home_uss_Desktop_myWebDev_django-uss_lib_python2_7_site-packages_Django-1_5_5-py2_7_egg_django_views_generic_edit'
p1040
(dp1041
g120
(dp1042
g30
S'_home_uss_Desktop_myWebDev_django-uss_lib_python2_7_site-packages_Django-1_5_5-py2_7_egg_django_views_generic_edit.html'
p1043
sg32
S'/home/uss/Desktop/myWebDev/django-uss/lib/python2.7/site-packages/Django-1.5.5-py2.7.egg/django/views/generic/edit'
p1044
sg34
g13
(g14
g15
NtRp1045
(dp1046
g18
I1
sg19
I0
sg20
I112
sg21
I0
sg22
I0
sg23
I65
sg24
I0
sbssg126
S'\xa3\x15d\xc6/$\xb8(/O1\xd8nl\x1d/'
p1047
ssS'_home_uss_Desktop_myWebDev_django-uss_lib_python2_7_site-packages_Django-1_5_5-py2_7_egg_django_contrib_admin_helpers'
p1048
(dp1049
g6
(dp1050
g8
S'_home_uss_Desktop_myWebDev_django-uss_lib_python2_7_site-packages_Django-1_5_5-py2_7_egg_django_contrib_admin_helpers.html'
p1051
sg10
S'/home/uss/Desktop/myWebDev/django-uss/lib/python2.7/site-packages/Django-1.5.5-py2.7.egg/django/contrib/admin/helpers'
p1052
sg12
g13
(g14
g15
NtRp1053
(dp1054
g18
I1
sg19
I0
sg20
I244
sg21
I0
sg22
I0
sg23
I179
sg24
I0
sbssg25
S'\x8b\xae\x9e\xae\x0b\x87\x93M]\x07\x8a\x9cx0\x18\xd2'
p1055
ssS'article_tests'
p1056
(dp1057
g6
(dp1058
g30
S'article_tests.html'
p1059
sg32
S'article/tests'
p1060
sg34
g13
(g14
g15
NtRp1061
(dp1062
g18
I1
sg19
I0
sg20
I33
sg21
I0
sg22
I0
sg23
I0
sg24
I0
sbssg25
S'\xa9\xca$\xf9\x85\x9e\x92\x17\xe9\xbf6\xa7V\xdb\x1b8'
p1063
ssS'_home_uss_Desktop_myWebDev_django-uss_lib_python2_7_site-packages_Django-1_5_5-py2_7_egg_django_core_exceptions'
p1064
(dp1065
g6
(dp1066
g8
S'_home_uss_Desktop_myWebDev_django-uss_lib_python2_7_site-packages_Django-1_5_5-py2_7_egg_django_core_exceptions.html'
p1067
sg10
S'/home/uss/Desktop/myWebDev/django-uss/lib/python2.7/site-packages/Django-1.5.5-py2.7.egg/django/core/exceptions'
p1068
sg12
g13
(g14
g15
NtRp1069
(dp1070
g18
I1
sg19
I0
sg20
I49
sg21
I0
sg22
I0
sg23
I24
sg24
I0
sbssg25
S'VL\xfcg\xd3\x15\xd4$\x05\x8cM\x0f\x9b\x9eHV'
p1071
ssS'_home_uss_Desktop_myWebDev_django-uss_lib_python2_7_site-packages_Django-1_5_5-py2_7_egg_django_core_management_commands_test'
p1072
(dp1073
g6
(dp1074
g8
S'_home_uss_Desktop_myWebDev_django-uss_lib_python2_7_site-packages_Django-1_5_5-py2_7_egg_django_core_management_commands_test.html'
p1075
sg10
S'/home/uss/Desktop/myWebDev/django-uss/lib/python2.7/site-packages/Django-1.5.5-py2.7.egg/django/core/management/commands/test'
p1076
sg12
g13
(g14
g15
NtRp1077
(dp1078
g18
I1
sg19
I0
sg20
I46
sg21
I0
sg22
I0
sg23
I5
sg24
I0
sbssg25
S't\xd0X\x16\x83\x1f\x12\xe3Y\xb6\xf7!9{\x12/'
p1079
ssS'_home_uss_Desktop_myWebDev_django-uss_lib_python2_7_site-packages_Django-1_5_5-py2_7_egg_django_utils_dateformat'
p1080
(dp1081
g6
(dp1082
g8
S'_home_uss_Desktop_myWebDev_django-uss_lib_python2_7_site-packages_Django-1_5_5-py2_7_egg_django_utils_dateformat.html'
p1083
sg10
S'/home/uss/Desktop/myWebDev/django-uss/lib/python2.7/site-packages/Django-1.5.5-py2.7.egg/django/utils/dateformat'
p1084
sg12
g13
(g14
g15
NtRp1085
(dp1086
g18
I1
sg19
I0
sg20
I181
sg21
I0
sg22
I0
sg23
I119
sg24
I0
sbssg25
S'\xb5E)F\x839\xcdaS\xdb\x02\x1e\x8a9\xcf\xb0'
p1087
ssS'_home_uss_Desktop_myWebDev_django-uss_lib_python2_7_site-packages_Django-1_5_5-py2_7_egg_django_db_models_sql_expressions'
p1088
(dp1089
g6
(dp1090
g8
S'_home_uss_Desktop_myWebDev_django-uss_lib_python2_7_site-packages_Django-1_5_5-py2_7_egg_django_db_models_sql_expressions.html'
p1091
sg10
S'/home/uss/Desktop/myWebDev/django-uss/lib/python2.7/site-packages/Django-1.5.5-py2.7.egg/django/db/models/sql/expressions'
p1092
sg12
g13
(g14
g15
NtRp1093
(dp1094
g18
I1
sg19
I0
sg20
I74
sg21
I0
sg22
I0
sg23
I61
sg24
I0
sbssg25
S'\x05\xdf\xd8\x9e\x0e\xff\x10e\xad`Q\xd62\xd10\xd5'
p1095
ssS'_home_uss_Desktop_myWebDev_django-uss_lib_python2_7_site-packages_Django-1_5_5-py2_7_egg_django_core_urlresolvers'
p1096
(dp1097
g6
(dp1098
g30
S'_home_uss_Desktop_myWebDev_django-uss_lib_python2_7_site-packages_Django-1_5_5-py2_7_egg_django_core_urlresolvers.html'
p1099
sg32
S'/home/uss/Desktop/myWebDev/django-uss/lib/python2.7/site-packages/Django-1.5.5-py2.7.egg/django/core/urlresolvers'
p1100
sg34
g13
(g14
g15
NtRp1101
(dp1102
g18
I1
sg19
I0
sg20
I349
sg21
I0
sg22
I0
sg23
I105
sg24
I0
sbssg25
S'\xbd\xe7R\x86xY0"pj\x0f\xf0\xc6g\xba;'
p1103
ssS'_home_uss_Desktop_myWebDev_django-uss_lib_python2_7_site-packages_Django-1_5_5-py2_7_egg_django_contrib_messages___init__'
p1104
(dp1105
g6
(dp1106
g8
S'_home_uss_Desktop_myWebDev_django-uss_lib_python2_7_site-packages_Django-1_5_5-py2_7_egg_django_contrib_messages___init__.html'
p1107
sg10
S'/home/uss/Desktop/myWebDev/django-uss/lib/python2.7/site-packages/Django-1.5.5-py2.7.egg/django/contrib/messages/__init__'
p1108
sg12
g13
(g14
g15
NtRp1109
(dp1110
g18
I1
sg19
I0
sg20
I3
sg21
I0
sg22
I0
sg23
I0
sg24
I0
sbssg25
S'\x01~\xb7\xc9ZD\xe5N\xc3\x01\xc2\x94u\x0b`\x9e'
p1111
ssS'_home_uss_Desktop_myWebDev_django-uss_lib_python2_7_site-packages_Django-1_5_5-py2_7_egg_django_contrib_sites_admin'
p1112
(dp1113
g120
(dp1114
g30
S'_home_uss_Desktop_myWebDev_django-uss_lib_python2_7_site-packages_Django-1_5_5-py2_7_egg_django_contrib_sites_admin.html'
p1115
sg32
S'/home/uss/Desktop/myWebDev/django-uss/lib/python2.7/site-packages/Django-1.5.5-py2.7.egg/django/contrib/sites/admin'
p1116
sg34
g13
(g14
g15
NtRp1117
(dp1118
g18
I1
sg19
I0
sg20
I6
sg21
I0
sg22
I0
sg23
I0
sg24
I0
sbssg126
S'\x88\xea\x7fX\n\x9c2tI\xac\xb4\xb2\xbd\x0e+\x10'
p1119
ssS'_home_uss_Desktop_myWebDev_django-uss_lib_python2_7_site-packages_Django-1_5_5-py2_7_egg_django_db_models_related'
p1120
(dp1121
g6
(dp1122
g8
S'_home_uss_Desktop_myWebDev_django-uss_lib_python2_7_site-packages_Django-1_5_5-py2_7_egg_django_db_models_related.html'
p1123
sg10
S'/home/uss/Desktop/myWebDev/django-uss/lib/python2.7/site-packages/Django-1.5.5-py2.7.egg/django/db/models/related'
p1124
sg12
g13
(g14
g15
NtRp1125
(dp1126
g18
I1
sg19
I0
sg20
I41
sg21
I0
sg22
I0
sg23
I17
sg24
I0
sbssg25
S'E\\w\xe5I\xe76K\x0f\xf1\x9dw\xba\xb1|\x1e'
p1127
ssS'_home_uss_Desktop_myWebDev_django-uss_lib_python2_7_site-packages_Django-1_5_5-py2_7_egg_django_utils_xmlutils'
p1128
(dp1129
g6
(dp1130
g8
S'_home_uss_Desktop_myWebDev_django-uss_lib_python2_7_site-packages_Django-1_5_5-py2_7_egg_django_utils_xmlutils.html'
p1131
sg10
S'/home/uss/Desktop/myWebDev/django-uss/lib/python2.7/site-packages/Django-1.5.5-py2.7.egg/django/utils/xmlutils'
p1132
sg12
g13
(g14
g15
NtRp1133
(dp1134
g18
I1
sg19
I0
sg20
I8
sg21
I0
sg22
I0
sg23
I5
sg24
I0
sbssg25
S'\xf1J\xb5(\x1cm\xf1\x8bQ\xab\x89\xc1\xce\x91R\x8f'
p1135
ssS'_home_uss_Desktop_myWebDev_django-uss_lib_python2_7_site-packages_Django-1_5_5-py2_7_egg_django_contrib_admin_models'
p1136
(dp1137
g6
(dp1138
g8
S'_home_uss_Desktop_myWebDev_django-uss_lib_python2_7_site-packages_Django-1_5_5-py2_7_egg_django_contrib_admin_models.html'
p1139
sg10
S'/home/uss/Desktop/myWebDev/django-uss/lib/python2.7/site-packages/Django-1.5.5-py2.7.egg/django/contrib/admin/models'
p1140
sg12
g13
(g14
g15
NtRp1141
(dp1142
g18
I1
sg19
I0
sg20
I52
sg21
I0
sg22
I0
sg23
I17
sg24
I0
sbssg25
S'\x06\x9fC\x89\xd8 \xd5`\xd8\xdf\x01O\x0c\xdf\x11\xc7'
p1143
ssS'_home_uss_Desktop_myWebDev_django-uss_lib_python2_7_site-packages_Django-1_5_5-py2_7_egg_django_core_paginator'
p1144
(dp1145
g6
(dp1146
g8
S'_home_uss_Desktop_myWebDev_django-uss_lib_python2_7_site-packages_Django-1_5_5-py2_7_egg_django_core_paginator.html'
p1147
sg10
S'/home/uss/Desktop/myWebDev/django-uss/lib/python2.7/site-packages/Django-1.5.5-py2.7.egg/django/core/paginator'
p1148
sg12
g13
(g14
g15
NtRp1149
(dp1150
g18
I1
sg19
I0
sg20
I106
sg21
I0
sg22
I0
sg23
I71
sg24
I0
sbssg25
S'\xa2\x9f\x8e\xe5\x07, \x0e\xf9\x106\x95\xfb\xdcs\xe8'
p1151
ssS'manage'
p1152
(dp1153
g6
(dp1154
g8
S'manage.html'
p1155
sg10
g1152
sg12
g13
(g14
g15
NtRp1156
(dp1157
g18
I1
sg19
I0
sg20
I6
sg21
I0
sg22
I0
sg23
I0
sg24
I0
sbssg25
S'1\x1e$\xe3\x13/\x93\x01B\xb50\xb9\x05\x0c;\x87'
p1158
ssS'_home_uss_Desktop_myWebDev_django-uss_lib_python2_7_site-packages_Django-1_5_5-py2_7_egg_django_contrib_staticfiles_templatetags_staticfiles'
p1159
(dp1160
g6
(dp1161
g8
S'_home_uss_Desktop_myWebDev_django-uss_lib_python2_7_site-packages_Django-1_5_5-py2_7_egg_django_contrib_staticfiles_templatetags_staticfiles.html'
p1162
sg10
S'/home/uss/Desktop/myWebDev/django-uss/lib/python2.7/site-packages/Django-1.5.5-py2.7.egg/django/contrib/staticfiles/templatetags/staticfiles'
p1163
sg12
g13
(g14
g15
NtRp1164
(dp1165
g18
I1
sg19
I0
sg20
I12
sg21
I0
sg22
I0
sg23
I4
sg24
I0
sbssg25
S'\xb3\x88\x8a.\xc4/\x07\xb14\x17\xe9\xbe\xf5\xfc\xde\xe9'
p1166
ssS'_home_uss_Desktop_myWebDev_django-uss_lib_python2_7_site-packages_Django-1_5_5-py2_7_egg_django_db_backends_creation'
p1167
(dp1168
g6
(dp1169
g8
S'_home_uss_Desktop_myWebDev_django-uss_lib_python2_7_site-packages_Django-1_5_5-py2_7_egg_django_db_backends_creation.html'
p1170
sg10
S'/home/uss/Desktop/myWebDev/django-uss/lib/python2.7/site-packages/Django-1.5.5-py2.7.egg/django/db/backends/creation'
p1171
sg12
g13
(g14
g15
NtRp1172
(dp1173
g18
I1
sg19
I0
sg20
I228
sg21
I0
sg22
I0
sg23
I96
sg24
I0
sbssg25
S'\x02\x82\xa0\x9c+\xa7\x14\xfe\x87\xdf\xaf\x03&\xd1\x89\x88'
p1174
ssS'_home_uss_Desktop_myWebDev_django-uss_lib_python2_7_site-packages_Django-1_5_5-py2_7_egg_django_utils_timezone'
p1175
(dp1176
g6
(dp1177
g30
S'_home_uss_Desktop_myWebDev_django-uss_lib_python2_7_site-packages_Django-1_5_5-py2_7_egg_django_utils_timezone.html'
p1178
sg32
S'/home/uss/Desktop/myWebDev/django-uss/lib/python2.7/site-packages/Django-1.5.5-py2.7.egg/django/utils/timezone'
p1179
sg34
g13
(g14
g15
NtRp1180
(dp1181
g18
I1
sg19
I0
sg20
I114
sg21
I0
sg22
I0
sg23
I63
sg24
I0
sbssg25
S'\xfb\xa9\xdd\x80\xc9\xaf\xe5\x9fW\x85\x1c:\x8fz\xb4N'
p1182
ssS'_home_uss_Desktop_myWebDev_django-uss_lib_python2_7_site-packages_Django-1_5_5-py2_7_egg_django_forms_util'
p1183
(dp1184
g6
(dp1185
g8
S'_home_uss_Desktop_myWebDev_django-uss_lib_python2_7_site-packages_Django-1_5_5-py2_7_egg_django_forms_util.html'
p1186
sg10
S'/home/uss/Desktop/myWebDev/django-uss/lib/python2.7/site-packages/Django-1.5.5-py2.7.egg/django/forms/util'
p1187
sg12
g13
(g14
g15
NtRp1188
(dp1189
g18
I1
sg19
I0
sg20
I44
sg21
I0
sg22
I0
sg23
I22
sg24
I0
sbssg25
S'\xb0\xfei\xd9\x80[lQ\xc7\xf5\x88\xf8\x9eDf\xd2'
p1190
ssS'_home_uss_Desktop_myWebDev_django-uss_lib_python2_7_site-packages_Django-1_5_5-py2_7_egg_django_utils_crypto'
p1191
(dp1192
g6
(dp1193
g30
S'_home_uss_Desktop_myWebDev_django-uss_lib_python2_7_site-packages_Django-1_5_5-py2_7_egg_django_utils_crypto.html'
p1194
sg32
S'/home/uss/Desktop/myWebDev/django-uss/lib/python2.7/site-packages/Django-1.5.5-py2.7.egg/django/utils/crypto'
p1195
sg34
g13
(g14
g15
NtRp1196
(dp1197
g18
I1
sg19
I0
sg20
I77
sg21
I0
sg22
I0
sg23
I51
sg24
I0
sbssg25
S'\xd5)\x07\x06\xd3f\xa0\x82\xc0\x08\x84x\xda\x97\x81\xbf'
p1198
ssS'_home_uss_Desktop_myWebDev_django-uss_lib_python2_7_site-packages_Django-1_5_5-py2_7_egg_django_contrib_sessions_serializers'
p1199
(dp1200
g120
(dp1201
g30
S'_home_uss_Desktop_myWebDev_django-uss_lib_python2_7_site-packages_Django-1_5_5-py2_7_egg_django_contrib_sessions_serializers.html'
p1202
sg32
S'/home/uss/Desktop/myWebDev/django-uss/lib/python2.7/site-packages/Django-1.5.5-py2.7.egg/django/contrib/sessions/serializers'
p1203
sg34
g13
(g14
g15
NtRp1204
(dp1205
g18
I1
sg19
I0
sg20
I11
sg21
I0
sg22
I0
sg23
I4
sg24
I0
sbssg126
S'\x1a\xc1\x8d\x0c\x88\xd7#u(\xb4\x10\xcbur\x7fC'
p1206
ssS'_home_uss_Desktop_myWebDev_django-uss_lib_python2_7_site-packages_Django-1_5_5-py2_7_egg_django_core_management_commands_flush'
p1207
(dp1208
g6
(dp1209
g8
S'_home_uss_Desktop_myWebDev_django-uss_lib_python2_7_site-packages_Django-1_5_5-py2_7_egg_django_core_management_commands_flush.html'
p1210
sg10
S'/home/uss/Desktop/myWebDev/django-uss/lib/python2.7/site-packages/Django-1.5.5-py2.7.egg/django/core/management/commands/flush'
p1211
sg12
g13
(g14
g15
NtRp1212
(dp1213
g18
I1
sg19
I0
sg20
I46
sg21
I0
sg22
I0
sg23
I5
sg24
I0
sbssg25
S'#^\x89\\H\xd4\x86\x86\xb6\x7f}\xe7\xee\x8akq'
p1214
ssS'_home_uss_Desktop_myWebDev_django-uss_lib_python2_7_site-packages_Django-1_5_5-py2_7_egg_django_utils_translation___init__'
p1215
(dp1216
g6
(dp1217
g8
S'_home_uss_Desktop_myWebDev_django-uss_lib_python2_7_site-packages_Django-1_5_5-py2_7_egg_django_utils_translation___init__.html'
p1218
sg10
S'/home/uss/Desktop/myWebDev/django-uss/lib/python2.7/site-packages/Django-1.5.5-py2.7.egg/django/utils/translation/__init__'
p1219
sg12
g13
(g14
g15
NtRp1220
(dp1221
g18
I1
sg19
I0
sg20
I78
sg21
I0
sg22
I0
sg23
I25
sg24
I0
sbssg25
S'\xd0\xf5\x84\x0f\nv\xc3\xe0\x02\xe5\x1e\x8cUE\nn'
p1222
ssS'_home_uss_Desktop_myWebDev_django-uss_lib_python2_7_site-packages_Django-1_5_5-py2_7_egg_django_contrib_messages_storage_base'
p1223
(dp1224
g120
(dp1225
g30
S'_home_uss_Desktop_myWebDev_django-uss_lib_python2_7_site-packages_Django-1_5_5-py2_7_egg_django_contrib_messages_storage_base.html'
p1226
sg32
S'/home/uss/Desktop/myWebDev/django-uss/lib/python2.7/site-packages/Django-1.5.5-py2.7.egg/django/contrib/messages/storage/base'
p1227
sg34
g13
(g14
g15
NtRp1228
(dp1229
g18
I1
sg19
I0
sg20
I83
sg21
I0
sg22
I0
sg23
I47
sg24
I0
sbssg126
S'\xf4\xb0\x94\xa4P\xc3\xfa\xd7\xe3#`\xf7\x17G\x06p'
p1230
ssS'_home_uss_Desktop_myWebDev_django-uss_lib_python2_7_site-packages_Django-1_5_5-py2_7_egg_django_template_loaders_app_directories'
p1231
(dp1232
g120
(dp1233
g30
S'_home_uss_Desktop_myWebDev_django-uss_lib_python2_7_site-packages_Django-1_5_5-py2_7_egg_django_template_loaders_app_directories.html'
p1234
sg32
S'/home/uss/Desktop/myWebDev/django-uss/lib/python2.7/site-packages/Django-1.5.5-py2.7.egg/django/template/loaders/app_directories'
p1235
sg34
g13
(g14
g15
NtRp1236
(dp1237
g18
I1
sg19
I0
sg20
I43
sg21
I0
sg22
I0
sg23
I18
sg24
I0
sbssg126
S'K\x0fGn\x19\xcb\xad\xcat\xdc"\x9c\x04\x1f~\x8f'
p1238
ssS'_home_uss_Desktop_myWebDev_django-uss_lib_python2_7_site-packages_Django-1_5_5-py2_7_egg_django_views_generic_detail'
p1239
(dp1240
g120
(dp1241
g30
S'_home_uss_Desktop_myWebDev_django-uss_lib_python2_7_site-packages_Django-1_5_5-py2_7_egg_django_views_generic_detail.html'
p1242
sg32
S'/home/uss/Desktop/myWebDev/django-uss/lib/python2.7/site-packages/Django-1.5.5-py2.7.egg/django/views/generic/detail'
p1243
sg34
g13
(g14
g15
NtRp1244
(dp1245
g18
I1
sg19
I0
sg20
I73
sg21
I0
sg22
I0
sg23
I48
sg24
I0
sbssg126
S'\x83xY\xd5\xe4V\xf2\x9e\xbb\\\xa1\xa8^\x15\xe2\x7f'
p1246
ssS'_home_uss_Desktop_myWebDev_django-uss_lib_python2_7_site-packages_Django-1_5_5-py2_7_egg_django_utils_numberformat'
p1247
(dp1248
g6
(dp1249
g30
S'_home_uss_Desktop_myWebDev_django-uss_lib_python2_7_site-packages_Django-1_5_5-py2_7_egg_django_utils_numberformat.html'
p1250
sg32
S'/home/uss/Desktop/myWebDev/django-uss/lib/python2.7/site-packages/Django-1.5.5-py2.7.egg/django/utils/numberformat'
p1251
sg34
g13
(g14
g15
NtRp1252
(dp1253
g18
I1
sg19
I0
sg20
I31
sg21
I0
sg22
I0
sg23
I22
sg24
I0
sbssg25
S'\xfe\x91\x82\x03\x84\x9d\xe0u\xc4\xb8t\x1e\xb6g\x9b\xc7'
p1254
ssS'_home_uss_Desktop_myWebDev_django-uss_lib_python2_7_site-packages_Django-1_5_5-py2_7_egg_django_db_backends_sqlite3_client'
p1255
(dp1256
g6
(dp1257
g8
S'_home_uss_Desktop_myWebDev_django-uss_lib_python2_7_site-packages_Django-1_5_5-py2_7_egg_django_db_backends_sqlite3_client.html'
p1258
sg10
S'/home/uss/Desktop/myWebDev/django-uss/lib/python2.7/site-packages/Django-1.5.5-py2.7.egg/django/db/backends/sqlite3/client'
p1259
sg12
g13
(g14
g15
NtRp1260
(dp1261
g18
I1
sg19
I0
sg20
I10
sg21
I0
sg22
I0
sg23
I4
sg24
I0
sbssg25
S'\xc1M\xc7\x1f ySpt\x02\xcb\x82\xbeT\x1c\xaa'
p1262
ssS'_home_uss_Desktop_myWebDev_django-uss_lib_python2_7_site-packages_Django-1_5_5-py2_7_egg_django_db_models_signals'
p1263
(dp1264
g6
(dp1265
g8
S'_home_uss_Desktop_myWebDev_django-uss_lib_python2_7_site-packages_Django-1_5_5-py2_7_egg_django_db_models_signals.html'
p1266
sg10
S'/home/uss/Desktop/myWebDev/django-uss/lib/python2.7/site-packages/Django-1.5.5-py2.7.egg/django/db/models/signals'
p1267
sg12
g13
(g14
g15
NtRp1268
(dp1269
g18
I1
sg19
I0
sg20
I10
sg21
I0
sg22
I0
sg23
I0
sg24
I0
sbssg25
S'\x18B\xc9\xeaVX\xccj\xc2)\xbe\xfb\xee\xf2\x95\x95'
p1270
ssS'_home_uss_Desktop_myWebDev_django-uss_lib_python2_7_site-packages_Django-1_5_5-py2_7_egg_django_db_models_fields_related'
p1271
(dp1272
g6
(dp1273
g30
S'_home_uss_Desktop_myWebDev_django-uss_lib_python2_7_site-packages_Django-1_5_5-py2_7_egg_django_db_models_fields_related.html'
p1274
sg32
S'/home/uss/Desktop/myWebDev/django-uss/lib/python2.7/site-packages/Django-1.5.5-py2.7.egg/django/db/models/fields/related'
p1275
sg34
g13
(g14
g15
NtRp1276
(dp1277
g18
I1
sg19
I0
sg20
I755
sg21
I0
sg22
I0
sg23
I429
sg24
I0
sbssg25
S'\xaal\xc4\xadQ\x03\xb4\x9e\x0e\xf7\xbdk\x98[\x1dM'
p1278
ssS'_home_uss_Desktop_myWebDev_django-uss_lib_python2_7_site-packages_Django-1_5_5-py2_7_egg_django_template_loaders_filesystem'
p1279
(dp1280
g120
(dp1281
g30
S'_home_uss_Desktop_myWebDev_django-uss_lib_python2_7_site-packages_Django-1_5_5-py2_7_egg_django_template_loaders_filesystem.html'
p1282
sg32
S'/home/uss/Desktop/myWebDev/django-uss/lib/python2.7/site-packages/Django-1.5.5-py2.7.egg/django/template/loaders/filesystem'
p1283
sg34
g13
(g14
g15
NtRp1284
(dp1285
g18
I1
sg19
I0
sg20
I29
sg21
I0
sg22
I0
sg23
I6
sg24
I0
sbssg126
S'\xc5\xde;\xe7\xa9\x08\x05`\xc5n\xd9\xe9\x1b,\xb8T'
p1286
ssS'_home_uss_Desktop_myWebDev_django-uss_lib_python2_7_site-packages_Django-1_5_5-py2_7_egg_django_views___init__'
p1287
(dp1288
g6
(dp1289
g8
S'_home_uss_Desktop_myWebDev_django-uss_lib_python2_7_site-packages_Django-1_5_5-py2_7_egg_django_views___init__.html'
p1290
sg10
S'/home/uss/Desktop/myWebDev/django-uss/lib/python2.7/site-packages/Django-1.5.5-py2.7.egg/django/views/__init__'
p1291
sg12
g13
(g14
g15
NtRp1292
(dp1293
g18
I1
sg19
I0
sg20
I0
sg21
I0
sg22
I0
sg23
I0
sg24
I0
sbssg25
S'\xb0\xc8pN\xaf>\xa0\xbaz\x144\xe0A9\xb8?'
p1294
ssS'_home_uss_Desktop_myWebDev_django-uss_lib_python2_7_site-packages_Django-1_5_5-py2_7_egg_django_contrib_auth_backends'
p1295
(dp1296
g120
(dp1297
g30
S'_home_uss_Desktop_myWebDev_django-uss_lib_python2_7_site-packages_Django-1_5_5-py2_7_egg_django_contrib_auth_backends.html'
p1298
sg32
S'/home/uss/Desktop/myWebDev/django-uss/lib/python2.7/site-packages/Django-1.5.5-py2.7.egg/django/contrib/auth/backends'
p1299
sg34
g13
(g14
g15
NtRp1300
(dp1301
g18
I1
sg19
I0
sg20
I71
sg21
I0
sg22
I0
sg23
I56
sg24
I0
sbssg126
S'\xc0\x8c\x98\xe6\xba\x9bgxY"Hjl*p\x1b'
p1302
ssS'_home_uss_Desktop_myWebDev_django-uss_lib_python2_7_site-packages_Django-1_5_5-py2_7_egg_django_utils_decorators'
p1303
(dp1304
g6
(dp1305
g30
S'_home_uss_Desktop_myWebDev_django-uss_lib_python2_7_site-packages_Django-1_5_5-py2_7_egg_django_utils_decorators.html'
p1306
sg32
S'/home/uss/Desktop/myWebDev/django-uss/lib/python2.7/site-packages/Django-1.5.5-py2.7.egg/django/utils/decorators'
p1307
sg34
g13
(g14
g15
NtRp1308
(dp1309
g18
I1
sg19
I0
sg20
I59
sg21
I0
sg22
I0
sg23
I31
sg24
I0
sbssg25
S'9Ia\xc8\xe7\xc8\x87W.\x17&G\xa4;\xa1\x1b'
p1310
ssS'_home_uss_Desktop_myWebDev_django-uss_lib_python2_7_site-packages_Django-1_5_5-py2_7_egg_django_test__doctest'
p1311
(dp1312
g6
(dp1313
g8
S'_home_uss_Desktop_myWebDev_django-uss_lib_python2_7_site-packages_Django-1_5_5-py2_7_egg_django_test__doctest.html'
p1314
sg10
S'/home/uss/Desktop/myWebDev/django-uss/lib/python2.7/site-packages/Django-1.5.5-py2.7.egg/django/test/_doctest'
p1315
sg12
g13
(g14
g15
NtRp1316
(dp1317
g18
I1
sg19
I0
sg20
I944
sg21
I0
sg22
I0
sg23
I672
sg24
I0
sbssg25
S'\xf5\x86\xbb\xff\x13UlD*\x03\xab\x1b\xcb\xc8\x07"'
p1318
ssS'_home_uss_Desktop_myWebDev_django-uss_lib_python2_7_site-packages_Django-1_5_5-py2_7_egg_django_utils_version'
p1319
(dp1320
g6
(dp1321
g8
S'_home_uss_Desktop_myWebDev_django-uss_lib_python2_7_site-packages_Django-1_5_5-py2_7_egg_django_utils_version.html'
p1322
sg10
S'/home/uss/Desktop/myWebDev/django-uss/lib/python2.7/site-packages/Django-1.5.5-py2.7.egg/django/utils/version'
p1323
sg12
g13
(g14
g15
NtRp1324
(dp1325
g18
I1
sg19
I0
sg20
I29
sg21
I0
sg22
I0
sg23
I15
sg24
I0
sbssg25
S'\xba\xcb\xe5|\x18\xbcUd\xd6q\x19\xc9p-\xb6\xb2'
p1326
ssS'_home_uss_Desktop_myWebDev_django-uss_lib_python2_7_site-packages_Django-1_5_5-py2_7_egg_django_db_models_query'
p1327
(dp1328
g6
(dp1329
g30
S'_home_uss_Desktop_myWebDev_django-uss_lib_python2_7_site-packages_Django-1_5_5-py2_7_egg_django_db_models_query.html'
p1330
sg32
S'/home/uss/Desktop/myWebDev/django-uss/lib/python2.7/site-packages/Django-1.5.5-py2.7.egg/django/db/models/query'
p1331
sg34
g13
(g14
g15
NtRp1332
(dp1333
g18
I1
sg19
I0
sg20
I973
sg21
I0
sg22
I0
sg23
I641
sg24
I0
sbssg25
S'\xb2\xd5\xe8\xc3\x10\xe8\x0f\xa1\x80\x7f\x8f\xcaP\x94\xff\xc3'
p1334
ssS'_home_uss_Desktop_myWebDev_django-uss_lib_python2_7_site-packages_Django-1_5_5-py2_7_egg_django_contrib_admin_forms'
p1335
(dp1336
g6
(dp1337
g8
S'_home_uss_Desktop_myWebDev_django-uss_lib_python2_7_site-packages_Django-1_5_5-py2_7_egg_django_contrib_admin_forms.html'
p1338
sg10
S'/home/uss/Desktop/myWebDev/django-uss/lib/python2.7/site-packages/Django-1.5.5-py2.7.egg/django/contrib/admin/forms'
p1339
sg12
g13
(g14
g15
NtRp1340
(dp1341
g18
I1
sg19
I0
sg20
I20
sg21
I0
sg22
I0
sg23
I11
sg24
I0
sbssg25
S'\xb3\x8b\x18/\xb9h\x14\x1e\x00C\x96\x9f;\xd1M\x0f'
p1342
ssS'_home_uss_Desktop_myWebDev_django-uss_lib_python2_7_site-packages_Django-1_5_5-py2_7_egg_django_utils_log'
p1343
(dp1344
g6
(dp1345
g8
S'_home_uss_Desktop_myWebDev_django-uss_lib_python2_7_site-packages_Django-1_5_5-py2_7_egg_django_utils_log.html'
p1346
sg10
S'/home/uss/Desktop/myWebDev/django-uss/lib/python2.7/site-packages/Django-1.5.5-py2.7.egg/django/utils/log'
p1347
sg12
g13
(g14
g15
NtRp1348
(dp1349
g18
I1
sg19
I0
sg20
I57
sg21
I0
sg22
I0
sg23
I33
sg24
I0
sbssg25
S'KL1\xa7\xf6\xb5\x02\t\xb4{\xd8\xd8`\xdd\x9fa'
p1350
ssS'_home_uss_Desktop_myWebDev_django-uss_lib_python2_7_site-packages_Django-1_5_5-py2_7_egg_django_middleware_cache'
p1351
(dp1352
g6
(dp1353
g8
S'_home_uss_Desktop_myWebDev_django-uss_lib_python2_7_site-packages_Django-1_5_5-py2_7_egg_django_middleware_cache.html'
p1354
sg10
S'/home/uss/Desktop/myWebDev/django-uss/lib/python2.7/site-packages/Django-1.5.5-py2.7.egg/django/middleware/cache'
p1355
sg12
g13
(g14
g15
NtRp1356
(dp1357
g18
I1
sg19
I0
sg20
I91
sg21
I0
sg22
I0
sg23
I78
sg24
I0
sbssg25
S'\x80\xb7\x9e\xfb\x8c?\x8bw\xcc\xa4\x84B\xe9KA5'
p1358
ssS'_home_uss_Desktop_myWebDev_django-uss_lib_python2_7_site-packages_Django-1_5_5-py2_7_egg_django_db_models_sql_query'
p1359
(dp1360
g6
(dp1361
g30
S'_home_uss_Desktop_myWebDev_django-uss_lib_python2_7_site-packages_Django-1_5_5-py2_7_egg_django_db_models_sql_query.html'
p1362
sg32
S'/home/uss/Desktop/myWebDev/django-uss/lib/python2.7/site-packages/Django-1.5.5-py2.7.egg/django/db/models/sql/query'
p1363
sg34
g13
(g14
g15
NtRp1364
(dp1365
g18
I1
sg19
I0
sg20
I1050
sg21
I0
sg22
I0
sg23
I546
sg24
I0
sbssg25
S'*}\xa3\xb3\x83\x14\xda\xb5\xc2jqQ\xf4FhB'
p1366
ssS'_home_uss_Desktop_myWebDev_django-uss_lib_python2_7_site-packages_Django-1_5_5-py2_7_egg_django_templatetags___init__'
p1367
(dp1368
g6
(dp1369
g8
S'_home_uss_Desktop_myWebDev_django-uss_lib_python2_7_site-packages_Django-1_5_5-py2_7_egg_django_templatetags___init__.html'
p1370
sg10
S'/home/uss/Desktop/myWebDev/django-uss/lib/python2.7/site-packages/Django-1.5.5-py2.7.egg/django/templatetags/__init__'
p1371
sg12
g13
(g14
g15
NtRp1372
(dp1373
g18
I1
sg19
I0
sg20
I0
sg21
I0
sg22
I0
sg23
I0
sg24
I0
sbssg25
S'\xb0\xc8pN\xaf>\xa0\xbaz\x144\xe0A9\xb8?'
p1374
ssS'_home_uss_Desktop_myWebDev_django-uss_lib_python2_7_site-packages_Django-1_5_5-py2_7_egg_django_db_utils'
p1375
(dp1376
g6
(dp1377
g8
S'_home_uss_Desktop_myWebDev_django-uss_lib_python2_7_site-packages_Django-1_5_5-py2_7_egg_django_db_utils.html'
p1378
sg10
S'/home/uss/Desktop/myWebDev/django-uss/lib/python2.7/site-packages/Django-1.5.5-py2.7.egg/django/db/utils'
p1379
sg12
g13
(g14
g15
NtRp1380
(dp1381
g18
I1
sg19
I0
sg20
I119
sg21
I0
sg22
I0
sg23
I52
sg24
I0
sbssg25
S'\x0b\xd0\x84\xec/\xff\x12\xa1\x95\xff9l\x12\x13\rw'
p1382
ssS'_home_uss_Desktop_myWebDev_django-uss_lib_python2_7_site-packages_Django-1_5_5-py2_7_egg_django_core_handlers_base'
p1383
(dp1384
g6
(dp1385
g30
S'_home_uss_Desktop_myWebDev_django-uss_lib_python2_7_site-packages_Django-1_5_5-py2_7_egg_django_core_handlers_base.html'
p1386
sg32
S'/home/uss/Desktop/myWebDev/django-uss/lib/python2.7/site-packages/Django-1.5.5-py2.7.egg/django/core/handlers/base'
p1387
sg34
g13
(g14
g15
NtRp1388
(dp1389
g18
I1
sg19
I0
sg20
I155
sg21
I0
sg22
I0
sg23
I68
sg24
I0
sbssg25
S'\xe0\xbd`\xbb\xd6\x90\xcc<\xc1\xd8\n)\xec\x89}j'
p1390
ssS'_home_uss_Desktop_myWebDev_django-uss_lib_python2_7_site-packages_Django-1_5_5-py2_7_egg_django_core_mail___init__'
p1391
(dp1392
g6
(dp1393
g8
S'_home_uss_Desktop_myWebDev_django-uss_lib_python2_7_site-packages_Django-1_5_5-py2_7_egg_django_core_mail___init__.html'
p1394
sg10
S'/home/uss/Desktop/myWebDev/django-uss/lib/python2.7/site-packages/Django-1.5.5-py2.7.egg/django/core/mail/__init__'
p1395
sg12
g13
(g14
g15
NtRp1396
(dp1397
g18
I1
sg19
I0
sg20
I39
sg21
I0
sg22
I0
sg23
I28
sg24
I0
sbssg25
S'\x05\xc9\xdd\x1e\x0b\xde;\xdd\x8e\xfb\x99-\xc4\x84\xbd\xd8'
p1398
ssS'django_test_views'
p1399
(dp1400
g120
(dp1401
g30
S'django_test_views.html'
p1402
sg32
S'django_test/views'
p1403
sg34
g13
(g14
g15
NtRp1404
(dp1405
g18
I1
sg19
I0
sg20
I37
sg21
I0
sg22
I0
sg23
I25
sg24
I0
sbssg126
S'+:\x1e$\xdc\x83c\xc7E\x0cY\x8d\x02\xb0\xd0\x87'
p1406
ssS'article_admin'
p1407
(dp1408
g120
(dp1409
g30
S'article_admin.html'
p1410
sg32
S'article/admin'
p1411
sg34
g13
(g14
g15
NtRp1412
(dp1413
g18
I1
sg19
I0
sg20
I3
sg21
I0
sg22
I0
sg23
I0
sg24
I0
sbssg126
S'\xd6TO<\x08\x0b\x0e\xc1\xa8\xdc\xf3\xa6\xb9\x86h8'
p1414
ssS'_home_uss_Desktop_myWebDev_django-uss_lib_python2_7_site-packages_Django-1_5_5-py2_7_egg_django_contrib_auth___init__'
p1415
(dp1416
g6
(dp1417
g8
S'_home_uss_Desktop_myWebDev_django-uss_lib_python2_7_site-packages_Django-1_5_5-py2_7_egg_django_contrib_auth___init__.html'
p1418
sg10
S'/home/uss/Desktop/myWebDev/django-uss/lib/python2.7/site-packages/Django-1.5.5-py2.7.egg/django/contrib/auth/__init__'
p1419
sg12
g13
(g14
g15
NtRp1420
(dp1421
g18
I1
sg19
I0
sg20
I91
sg21
I0
sg22
I0
sg23
I68
sg24
I0
sbssg25
S'\x84D\xd1r\xd0\xffu\xcf\xc1^)Z\xe5\x9d\xc3\xa1'
p1422
ssS'_home_uss_Desktop_myWebDev_django-uss_lib_python2_7_site-packages_Django-1_5_5-py2_7_egg_django_db_models_sql_compiler'
p1423
(dp1424
g6
(dp1425
g30
S'_home_uss_Desktop_myWebDev_django-uss_lib_python2_7_site-packages_Django-1_5_5-py2_7_egg_django_db_models_sql_compiler.html'
p1426
sg32
S'/home/uss/Desktop/myWebDev/django-uss/lib/python2.7/site-packages/Django-1.5.5-py2.7.egg/django/db/models/sql/compiler'
p1427
sg34
g13
(g14
g15
NtRp1428
(dp1429
g18
I1
sg19
I0
sg20
I662
sg21
I0
sg22
I0
sg23
I380
sg24
I0
sbssg25
S"\xf3i\x83\x06)_'\x82*E\xd6\xa8\x13h\xeb\x1e"
p1430
ssS'article_urls'
p1431
(dp1432
g120
(dp1433
g30
S'article_urls.html'
p1434
sg32
S'article/urls'
p1435
sg34
g13
(g14
g15
NtRp1436
(dp1437
g18
I1
sg19
I0
sg20
I9
sg21
I0
sg22
I0
sg23
I0
sg24
I0
sbssg126
S'u(\x9b\x9e2#OpE\xd4W \xfa6\x7f\xd3'
p1438
ssS'_home_uss_Desktop_myWebDev_django-uss_lib_python2_7_site-packages_Django-1_5_5-py2_7_egg_django_contrib_messages_constants'
p1439
(dp1440
g6
(dp1441
g8
S'_home_uss_Desktop_myWebDev_django-uss_lib_python2_7_site-packages_Django-1_5_5-py2_7_egg_django_contrib_messages_constants.html'
p1442
sg10
S'/home/uss/Desktop/myWebDev/django-uss/lib/python2.7/site-packages/Django-1.5.5-py2.7.egg/django/contrib/messages/constants'
p1443
sg12
g13
(g14
g15
NtRp1444
(dp1445
g18
I1
sg19
I0
sg20
I6
sg21
I0
sg22
I0
sg23
I0
sg24
I0
sbssg25
S'\xe2n\xbf/\x11\x9a\xf2\xc6\xa4\x8f~\xd2\x91y\xd4\xda'
p1446
ssS'_home_uss_Desktop_myWebDev_django-uss_lib_python2_7_site-packages_Django-1_5_5-py2_7_egg_django_forms_widgets'
p1447
(dp1448
g6
(dp1449
g30
S'_home_uss_Desktop_myWebDev_django-uss_lib_python2_7_site-packages_Django-1_5_5-py2_7_egg_django_forms_widgets.html'
p1450
sg32
S'/home/uss/Desktop/myWebDev/django-uss/lib/python2.7/site-packages/Django-1.5.5-py2.7.egg/django/forms/widgets'
p1451
sg34
g13
(g14
g15
NtRp1452
(dp1453
g18
I1
sg19
I0
sg20
I565
sg21
I0
sg22
I0
sg23
I378
sg24
I0
sbssg25
S'\xe2G_\xac\xc7\xb4A\x11\xfc1\xebUtg\xb8D'
p1454
ssS'_home_uss_Desktop_myWebDev_django-uss_lib_python2_7_site-packages_Django-1_5_5-py2_7_egg_django_core_signals'
p1455
(dp1456
g6
(dp1457
g8
S'_home_uss_Desktop_myWebDev_django-uss_lib_python2_7_site-packages_Django-1_5_5-py2_7_egg_django_core_signals.html'
p1458
sg10
S'/home/uss/Desktop/myWebDev/django-uss/lib/python2.7/site-packages/Django-1.5.5-py2.7.egg/django/core/signals'
p1459
sg12
g13
(g14
g15
NtRp1460
(dp1461
g18
I1
sg19
I0
sg20
I4
sg21
I0
sg22
I0
sg23
I0
sg24
I0
sbssg25
S'\xa8\x92\x82\x13=\x82/\x06\xba\xb2\xa6\xad\xc4o\x81\xc2'
p1462
ssS'django_test_settings'
p1463
(dp1464
g6
(dp1465
g8
S'django_test_settings.html'
p1466
sg10
S'django_test/settings'
p1467
sg12
g13
(g14
g15
NtRp1468
(dp1469
g18
I1
sg19
I0
sg20
I27
sg21
I0
sg22
I0
sg23
I0
sg24
I0
sbssg25
S'\xa7$\xc2\xde\xb7W\xe7\x86\x9f\x9a\xac\xde\x13Zap'
p1470
ssS'_home_uss_Desktop_myWebDev_django-uss_lib_python2_7_site-packages_Django-1_5_5-py2_7_egg_django_db_backends_sqlite3_introspection'
p1471
(dp1472
g6
(dp1473
g8
S'_home_uss_Desktop_myWebDev_django-uss_lib_python2_7_site-packages_Django-1_5_5-py2_7_egg_django_db_backends_sqlite3_introspection.html'
p1474
sg10
S'/home/uss/Desktop/myWebDev/django-uss/lib/python2.7/site-packages/Django-1.5.5-py2.7.egg/django/db/backends/sqlite3/introspection'
p1475
sg12
g13
(g14
g15
NtRp1476
(dp1477
g18
I1
sg19
I0
sg20
I92
sg21
I0
sg22
I0
sg23
I74
sg24
I0
sbssg25
S'\xfaEb\xe4\x04\x91\x13\x9e\x94\xcd\x99\xef\xd7\xdc\xbdr'
p1478
ssS'_home_uss_Desktop_myWebDev_django-uss_lib_python2_7_site-packages_Django-1_5_5-py2_7_egg_django_http_response'
p1479
(dp1480
g6
(dp1481
g30
S'_home_uss_Desktop_myWebDev_django-uss_lib_python2_7_site-packages_Django-1_5_5-py2_7_egg_django_http_response.html'
p1482
sg32
S'/home/uss/Desktop/myWebDev/django-uss/lib/python2.7/site-packages/Django-1.5.5-py2.7.egg/django/http/response'
p1483
sg34
g13
(g14
g15
NtRp1484
(dp1485
g18
I1
sg19
I0
sg20
I236
sg21
I0
sg22
I0
sg23
I96
sg24
I0
sbssg25
S'\x03\xf4\xa3\xae1W\xae\xa6\xacz\x1a\x938\x18\xf8\xb2'
p1486
ssS'_home_uss_Desktop_myWebDev_django-uss_lib_python2_7_site-packages_Django-1_5_5-py2_7_egg_django_middleware_common'
p1487
(dp1488
g120
(dp1489
g30
S'_home_uss_Desktop_myWebDev_django-uss_lib_python2_7_site-packages_Django-1_5_5-py2_7_egg_django_middleware_common.html'
p1490
sg32
S'/home/uss/Desktop/myWebDev/django-uss/lib/python2.7/site-packages/Django-1.5.5-py2.7.egg/django/middleware/common'
p1491
sg34
g13
(g14
g15
NtRp1492
(dp1493
g18
I1
sg19
I0
sg20
I82
sg21
I0
sg22
I0
sg23
I56
sg24
I0
sbssg126
S'\xfe%\xa8\xa8\xd4\x8a=\xd4\xc0\xf3\xc1\xe2\t\xe4\xec\x1c'
p1494
ssS'_home_uss_Desktop_myWebDev_django-uss_lib_python2_7_site-packages_Django-1_5_5-py2_7_egg_django_db_models_sql_aggregates'
p1495
(dp1496
g6
(dp1497
g30
S'_home_uss_Desktop_myWebDev_django-uss_lib_python2_7_site-packages_Django-1_5_5-py2_7_egg_django_db_models_sql_aggregates.html'
p1498
sg32
S'/home/uss/Desktop/myWebDev/django-uss/lib/python2.7/site-packages/Django-1.5.5-py2.7.egg/django/db/models/sql/aggregates'
p1499
sg34
g13
(g14
g15
NtRp1500
(dp1501
g18
I1
sg19
I0
sg20
I57
sg21
I0
sg22
I0
sg23
I11
sg24
I0
sbssg25
S'}K.\x8c\xdd\xa3\xcc\xbe\xde\xcfd\x1b\xb0\xb7\x98\x87'
p1502
ssS'_home_uss_Desktop_myWebDev_django-uss_lib_python2_7_site-packages_Django-1_5_5-py2_7_egg_django_template_loaders___init__'
p1503
(dp1504
g6
(dp1505
g8
S'_home_uss_Desktop_myWebDev_django-uss_lib_python2_7_site-packages_Django-1_5_5-py2_7_egg_django_template_loaders___init__.html'
p1506
sg10
S'/home/uss/Desktop/myWebDev/django-uss/lib/python2.7/site-packages/Django-1.5.5-py2.7.egg/django/template/loaders/__init__'
p1507
sg12
g13
(g14
g15
NtRp1508
(dp1509
g18
I1
sg19
I0
sg20
I0
sg21
I0
sg22
I0
sg23
I0
sg24
I0
sbssg25
S'\xb0\xc8pN\xaf>\xa0\xbaz\x144\xe0A9\xb8?'
p1510
ssS'_home_uss_Desktop_myWebDev_django-uss_lib_python2_7_site-packages_Django-1_5_5-py2_7_egg_django_utils_datastructures'
p1511
(dp1512
g6
(dp1513
g30
S'_home_uss_Desktop_myWebDev_django-uss_lib_python2_7_site-packages_Django-1_5_5-py2_7_egg_django_utils_datastructures.html'
p1514
sg32
S'/home/uss/Desktop/myWebDev/django-uss/lib/python2.7/site-packages/Django-1.5.5-py2.7.egg/django/utils/datastructures'
p1515
sg34
g13
(g14
g15
NtRp1516
(dp1517
g18
I1
sg19
I0
sg20
I303
sg21
I0
sg22
I0
sg23
I152
sg24
I0
sbssg25
S'\x0f\xaa\x13\xec\x92]|\x10\xc1\xdd\x8cd\xdd\xd8\xe0S'
p1518
ssS'_home_uss_Desktop_myWebDev_django-uss_lib_python2_7_site-packages_Django-1_5_5-py2_7_egg_django_utils_unittest___init__'
p1519
(dp1520
g6
(dp1521
g8
S'_home_uss_Desktop_myWebDev_django-uss_lib_python2_7_site-packages_Django-1_5_5-py2_7_egg_django_utils_unittest___init__.html'
p1522
sg10
S'/home/uss/Desktop/myWebDev/django-uss/lib/python2.7/site-packages/Django-1.5.5-py2.7.egg/django/utils/unittest/__init__'
p1523
sg12
g13
(g14
g15
NtRp1524
(dp1525
g18
I1
sg19
I0
sg20
I23
sg21
I0
sg22
I0
sg23
I17
sg24
I0
sbssg25
S'\xccP\x9c\xf4\x9b(\x7f#1\xb9\xe3X7\xb4\xe6B'
p1526
ssS'_home_uss_Desktop_myWebDev_django-uss_lib_python2_7_site-packages_Django-1_5_5-py2_7_egg_django_contrib_admin_util'
p1527
(dp1528
g6
(dp1529
g8
S'_home_uss_Desktop_myWebDev_django-uss_lib_python2_7_site-packages_Django-1_5_5-py2_7_egg_django_contrib_admin_util.html'
p1530
sg10
S'/home/uss/Desktop/myWebDev/django-uss/lib/python2.7/site-packages/Django-1.5.5-py2.7.egg/django/contrib/admin/util'
p1531
sg12
g13
(g14
g15
NtRp1532
(dp1533
g18
I1
sg19
I0
sg20
I275
sg21
I0
sg22
I0
sg23
I231
sg24
I0
sbssg25
S'\xbbq\x9a\nO\x8d\n\xf1>!\xdd\xa5\x949\xd9\xd6'
p1534
ssS'_home_uss_Desktop_myWebDev_django-uss_lib_python2_7_site-packages_Django-1_5_5-py2_7_egg_django_db_models_base'
p1535
(dp1536
g6
(dp1537
g30
S'_home_uss_Desktop_myWebDev_django-uss_lib_python2_7_site-packages_Django-1_5_5-py2_7_egg_django_db_models_base.html'
p1538
sg32
S'/home/uss/Desktop/myWebDev/django-uss/lib/python2.7/site-packages/Django-1.5.5-py2.7.egg/django/db/models/base'
p1539
sg34
g13
(g14
g15
NtRp1540
(dp1541
g18
I1
sg19
I0
sg20
I544
sg21
I0
sg22
I0
sg23
I302
sg24
I0
sbssg25
S'8H\xbe\xbc}\xda\x02`\xfe\xddb\xe9=%\xb6\n'
p1542
ssS'article___init__'
p1543
(dp1544
g6
(dp1545
g8
S'article___init__.html'
p1546
sg10
S'article/__init__'
p1547
sg12
g13
(g14
g15
NtRp1548
(dp1549
g18
I1
sg19
I0
sg20
I0
sg21
I0
sg22
I0
sg23
I0
sg24
I0
sbssg25
S'\xb0\xc8pN\xaf>\xa0\xbaz\x144\xe0A9\xb8?'
p1550
ssS'_home_uss_Desktop_myWebDev_django-uss_lib_python2_7_site-packages_Django-1_5_5-py2_7_egg_django_utils_timesince'
p1551
(dp1552
g6
(dp1553
g8
S'_home_uss_Desktop_myWebDev_django-uss_lib_python2_7_site-packages_Django-1_5_5-py2_7_egg_django_utils_timesince.html'
p1554
sg10
S'/home/uss/Desktop/myWebDev/django-uss/lib/python2.7/site-packages/Django-1.5.5-py2.7.egg/django/utils/timesince'
p1555
sg12
g13
(g14
g15
NtRp1556
(dp1557
g18
I1
sg19
I0
sg20
I29
sg21
I0
sg22
I0
sg23
I23
sg24
I0
sbssg25
S'$\x8cBu\x0b\xc1\xdfN\x15\xde\xf7F\x8f\n\xe9\xbf'
p1558
ssS'_home_uss_Desktop_myWebDev_django-uss_lib_python2_7_site-packages_Django-1_5_5-py2_7_egg_django_db_models_manager'
p1559
(dp1560
g6
(dp1561
g30
S'_home_uss_Desktop_myWebDev_django-uss_lib_python2_7_site-packages_Django-1_5_5-py2_7_egg_django_db_models_manager.html'
p1562
sg32
S'/home/uss/Desktop/myWebDev/django-uss/lib/python2.7/site-packages/Django-1.5.5-py2.7.egg/django/db/models/manager'
p1563
sg34
g13
(g14
g15
NtRp1564
(dp1565
g18
I1
sg19
I0
sg20
I157
sg21
I0
sg22
I0
sg23
I40
sg24
I0
sbssg25
S'8\xe1\x1a\xff\x11T\xf0\x85\xa1\xca\x19K\x1f\x86P\x9c'
p1566
ssS'_home_uss_Desktop_myWebDev_django-uss_lib_python2_7_site-packages_Django-1_5_5-py2_7_egg_django_contrib_admin_options'
p1567
(dp1568
g6
(dp1569
g30
S'_home_uss_Desktop_myWebDev_django-uss_lib_python2_7_site-packages_Django-1_5_5-py2_7_egg_django_contrib_admin_options.html'
p1570
sg32
S'/home/uss/Desktop/myWebDev/django-uss/lib/python2.7/site-packages/Django-1.5.5-py2.7.egg/django/contrib/admin/options'
p1571
sg34
g13
(g14
g15
NtRp1572
(dp1573
g18
I1
sg19
I0
sg20
I763
sg21
I0
sg22
I0
sg23
I582
sg24
I0
sbssg25
S'\xb8\xfb(\x08dF\xfe\xba\xac\xca!\xa2Ig\x93\x03'
p1574
ssS'_home_uss_Desktop_myWebDev_django-uss_lib_python2_7_site-packages_Django-1_5_5-py2_7_egg_django_test___init__'
p1575
(dp1576
g6
(dp1577
g8
S'_home_uss_Desktop_myWebDev_django-uss_lib_python2_7_site-packages_Django-1_5_5-py2_7_egg_django_test___init__.html'
p1578
sg10
S'/home/uss/Desktop/myWebDev/django-uss/lib/python2.7/site-packages/Django-1.5.5-py2.7.egg/django/test/__init__'
p1579
sg12
g13
(g14
g15
NtRp1580
(dp1581
g18
I1
sg19
I0
sg20
I3
sg21
I0
sg22
I0
sg23
I0
sg24
I0
sbssg25
S"k\xb8'p2\xfc8\xaf8\xa4\xad\xa4\xe9\x8c\x1c\xc3"
p1582
ssS'_home_uss_Desktop_myWebDev_django-uss_lib_python2_7_site-packages_Django-1_5_5-py2_7_egg_django_contrib___init__'
p1583
(dp1584
g6
(dp1585
g8
S'_home_uss_Desktop_myWebDev_django-uss_lib_python2_7_site-packages_Django-1_5_5-py2_7_egg_django_contrib___init__.html'
p1586
sg10
S'/home/uss/Desktop/myWebDev/django-uss/lib/python2.7/site-packages/Django-1.5.5-py2.7.egg/django/contrib/__init__'
p1587
sg12
g13
(g14
g15
NtRp1588
(dp1589
g18
I1
sg19
I0
sg20
I0
sg21
I0
sg22
I0
sg23
I0
sg24
I0
sbssg25
S'\xb0\xc8pN\xaf>\xa0\xbaz\x144\xe0A9\xb8?'
p1590
ssS'_home_uss_Desktop_myWebDev_django-uss_lib_python2_7_site-packages_Django-1_5_5-py2_7_egg_django_contrib_messages_api'
p1591
(dp1592
g6
(dp1593
g8
S'_home_uss_Desktop_myWebDev_django-uss_lib_python2_7_site-packages_Django-1_5_5-py2_7_egg_django_contrib_messages_api.html'
p1594
sg10
S'/home/uss/Desktop/myWebDev/django-uss/lib/python2.7/site-packages/Django-1.5.5-py2.7.egg/django/contrib/messages/api'
p1595
sg12
g13
(g14
g15
NtRp1596
(dp1597
g18
I1
sg19
I0
sg20
I34
sg21
I0
sg22
I0
sg23
I20
sg24
I0
sbssg25
S'i\xb5\x8fk2\x89\xf2JF0\xfa\xd1z\x05\xaf\xe5'
p1598
ssS'_home_uss_Desktop_myWebDev_django-uss_lib_python2_7_site-packages_Django-1_5_5-py2_7_egg_django_contrib_auth_signals'
p1599
(dp1600
g6
(dp1601
g8
S'_home_uss_Desktop_myWebDev_django-uss_lib_python2_7_site-packages_Django-1_5_5-py2_7_egg_django_contrib_auth_signals.html'
p1602
sg10
S'/home/uss/Desktop/myWebDev/django-uss/lib/python2.7/site-packages/Django-1.5.5-py2.7.egg/django/contrib/auth/signals'
p1603
sg12
g13
(g14
g15
NtRp1604
(dp1605
g18
I1
sg19
I0
sg20
I4
sg21
I0
sg22
I0
sg23
I0
sg24
I0
sbssg25
S'juq\x85\xf8\xf6\x92\xd4\xc6;\xc1\x16\xc2\xaa\xe6\xec'
p1606
ssS'_home_uss_Desktop_myWebDev_django-uss_lib_python2_7_site-packages_Django-1_5_5-py2_7_egg_django_test_utils'
p1607
(dp1608
g6
(dp1609
g30
S'_home_uss_Desktop_myWebDev_django-uss_lib_python2_7_site-packages_Django-1_5_5-py2_7_egg_django_test_utils.html'
p1610
sg32
S'/home/uss/Desktop/myWebDev/django-uss/lib/python2.7/site-packages/Django-1.5.5-py2.7.egg/django/test/utils'
p1611
sg34
g13
(g14
g15
NtRp1612
(dp1613
g18
I1
sg19
I0
sg20
I188
sg21
I0
sg22
I0
sg23
I123
sg24
I0
sbssg25
S'\xc6\x8b\x8c\x06t\xf8U\x16r\xe2\xb5\xfa\xdd\x03wd'
p1614
ssS'_home_uss_Desktop_myWebDev_django-uss_lib_python2_7_site-packages_Django-1_5_5-py2_7_egg_django_contrib_sessions_backends_base'
p1615
(dp1616
g6
(dp1617
g30
S'_home_uss_Desktop_myWebDev_django-uss_lib_python2_7_site-packages_Django-1_5_5-py2_7_egg_django_contrib_sessions_backends_base.html'
p1618
sg32
S'/home/uss/Desktop/myWebDev/django-uss/lib/python2.7/site-packages/Django-1.5.5-py2.7.egg/django/contrib/sessions/backends/base'
p1619
sg34
g13
(g14
g15
NtRp1620
(dp1621
g18
I1
sg19
I0
sg20
I176
sg21
I0
sg22
I0
sg23
I104
sg24
I0
sbssg25
S'\xc7\x80Z\x89.\xc4\x0f\x1dy\x0fgh\xe7?\x10\xb7'
p1622
ssS'_home_uss_Desktop_myWebDev_django-uss_lib_python2_7_site-packages_Django-1_5_5-py2_7_egg_django_contrib_messages_models'
p1623
(dp1624
g6
(dp1625
g8
S'_home_uss_Desktop_myWebDev_django-uss_lib_python2_7_site-packages_Django-1_5_5-py2_7_egg_django_contrib_messages_models.html'
p1626
sg10
S'/home/uss/Desktop/myWebDev/django-uss/lib/python2.7/site-packages/Django-1.5.5-py2.7.egg/django/contrib/messages/models'
p1627
sg12
g13
(g14
g15
NtRp1628
(dp1629
g18
I1
sg19
I0
sg20
I0
sg21
I0
sg22
I0
sg23
I0
sg24
I0
sbssg25
S'}\xf8)\x98N\x1e\xef\xd8Ky\x9f\x03d\x14L\xac'
p1630
ssS'_home_uss_Desktop_myWebDev_django-uss_lib_python2_7_site-packages_Django-1_5_5-py2_7_egg_django_utils_encoding'
p1631
(dp1632
g6
(dp1633
g30
S'_home_uss_Desktop_myWebDev_django-uss_lib_python2_7_site-packages_Django-1_5_5-py2_7_egg_django_utils_encoding.html'
p1634
sg32
S'/home/uss/Desktop/myWebDev/django-uss/lib/python2.7/site-packages/Django-1.5.5-py2.7.egg/django/utils/encoding'
p1635
sg34
g13
(g14
g15
NtRp1636
(dp1637
g18
I1
sg19
I0
sg20
I104
sg21
I0
sg22
I0
sg23
I35
sg24
I0
sbssg25
S'\xf3\xbc<-\xc93\xf7\xb4n\xbe\xb03\xb2\x8b\xa2\xd8'
p1638
ssS'_home_uss_Desktop_myWebDev_django-uss_lib_python2_7_site-packages_Django-1_5_5-py2_7_egg_django_utils_text'
p1639
(dp1640
g6
(dp1641
g30
S'_home_uss_Desktop_myWebDev_django-uss_lib_python2_7_site-packages_Django-1_5_5-py2_7_egg_django_utils_text.html'
p1642
sg32
S'/home/uss/Desktop/myWebDev/django-uss/lib/python2.7/site-packages/Django-1.5.5-py2.7.egg/django/utils/text'
p1643
sg34
g13
(g14
g15
NtRp1644
(dp1645
g18
I1
sg19
I0
sg20
I239
sg21
I0
sg22
I0
sg23
I160
sg24
I0
sbssg25
S'\xf2.[G\xaa\x00\xdf\xd6\x83\xbe\xe4\xde\x1d\xbb\xac0'
p1646
ssS'_home_uss_Desktop_myWebDev_django-uss_lib_python2_7_site-packages_Django-1_5_5-py2_7_egg_django_contrib_sessions_backends___init__'
p1647
(dp1648
g6
(dp1649
g8
S'_home_uss_Desktop_myWebDev_django-uss_lib_python2_7_site-packages_Django-1_5_5-py2_7_egg_django_contrib_sessions_backends___init__.html'
p1650
sg10
S'/home/uss/Desktop/myWebDev/django-uss/lib/python2.7/site-packages/Django-1.5.5-py2.7.egg/django/contrib/sessions/backends/__init__'
p1651
sg12
g13
(g14
g15
NtRp1652
(dp1653
g18
I1
sg19
I0
sg20
I0
sg21
I0
sg22
I0
sg23
I0
sg24
I0
sbssg25
S'\xb0\xc8pN\xaf>\xa0\xbaz\x144\xe0A9\xb8?'
p1654
ssS'_home_uss_Desktop_myWebDev_django-uss_lib_python2_7_site-packages_Django-1_5_5-py2_7_egg_django_core_servers___init__'
p1655
(dp1656
g6
(dp1657
g8
S'_home_uss_Desktop_myWebDev_django-uss_lib_python2_7_site-packages_Django-1_5_5-py2_7_egg_django_core_servers___init__.html'
p1658
sg10
S'/home/uss/Desktop/myWebDev/django-uss/lib/python2.7/site-packages/Django-1.5.5-py2.7.egg/django/core/servers/__init__'
p1659
sg12
g13
(g14
g15
NtRp1660
(dp1661
g18
I1
sg19
I0
sg20
I0
sg21
I0
sg22
I0
sg23
I0
sg24
I0
sbssg25
S'\xb0\xc8pN\xaf>\xa0\xbaz\x144\xe0A9\xb8?'
p1662
ssS'_home_uss_Desktop_myWebDev_django-uss_lib_python2_7_site-packages_Django-1_5_5-py2_7_egg_django_contrib_staticfiles_views'
p1663
(dp1664
g6
(dp1665
g8
S'_home_uss_Desktop_myWebDev_django-uss_lib_python2_7_site-packages_Django-1_5_5-py2_7_egg_django_contrib_staticfiles_views.html'
p1666
sg10
S'/home/uss/Desktop/myWebDev/django-uss/lib/python2.7/site-packages/Django-1.5.5-py2.7.egg/django/contrib/staticfiles/views'
p1667
sg12
g13
(g14
g15
NtRp1668
(dp1669
g18
I1
sg19
I0
sg20
I22
sg21
I0
sg22
I0
sg23
I10
sg24
I0
sbssg25
S'\xdf\x8em,\x98CRFQ\x89$\xf4\x0e\xb5A\x1b'
p1670
ssS'_home_uss_Desktop_myWebDev_django-uss_lib_python2_7_site-packages_Django-1_5_5-py2_7_egg_django_core_management_commands___init__'
p1671
(dp1672
g6
(dp1673
g8
S'_home_uss_Desktop_myWebDev_django-uss_lib_python2_7_site-packages_Django-1_5_5-py2_7_egg_django_core_management_commands___init__.html'
p1674
sg10
S'/home/uss/Desktop/myWebDev/django-uss/lib/python2.7/site-packages/Django-1.5.5-py2.7.egg/django/core/management/commands/__init__'
p1675
sg12
g13
(g14
g15
NtRp1676
(dp1677
g18
I1
sg19
I0
sg20
I0
sg21
I0
sg22
I0
sg23
I0
sg24
I0
sbssg25
S'\xb0\xc8pN\xaf>\xa0\xbaz\x144\xe0A9\xb8?'
p1678
ssS'_home_uss_Desktop_myWebDev_django-uss_lib_python2_7_site-packages_Django-1_5_5-py2_7_egg_django_dispatch___init__'
p1679
(dp1680
g6
(dp1681
g8
S'_home_uss_Desktop_myWebDev_django-uss_lib_python2_7_site-packages_Django-1_5_5-py2_7_egg_django_dispatch___init__.html'
p1682
sg10
S'/home/uss/Desktop/myWebDev/django-uss/lib/python2.7/site-packages/Django-1.5.5-py2.7.egg/django/dispatch/__init__'
p1683
sg12
g13
(g14
g15
NtRp1684
(dp1685
g18
I1
sg19
I0
sg20
I1
sg21
I0
sg22
I0
sg23
I0
sg24
I0
sbssg25
S'\xe9$\xa4\xf3k\xc7$G\xbe^\x9e5~A\x94\xd1'
p1686
ssS'_home_uss_Desktop_myWebDev_django-uss_lib_python2_7_site-packages_Django-1_5_5-py2_7_egg_django_core_serializers___init__'
p1687
(dp1688
g6
(dp1689
g8
S'_home_uss_Desktop_myWebDev_django-uss_lib_python2_7_site-packages_Django-1_5_5-py2_7_egg_django_core_serializers___init__.html'
p1690
sg10
S'/home/uss/Desktop/myWebDev/django-uss/lib/python2.7/site-packages/Django-1.5.5-py2.7.egg/django/core/serializers/__init__'
p1691
sg12
g13
(g14
g15
NtRp1692
(dp1693
g18
I1
sg19
I0
sg20
I59
sg21
I0
sg22
I0
sg23
I28
sg24
I0
sbssg25
S'\txe\xcf\xac("?\x03\xe1\x02\xe6/*6\xba'
p1694
ssS'_home_uss_Desktop_myWebDev_django-uss_lib_python2_7_site-packages_Django-1_5_5-py2_7_egg_django_db___init__'
p1695
(dp1696
g6
(dp1697
g30
S'_home_uss_Desktop_myWebDev_django-uss_lib_python2_7_site-packages_Django-1_5_5-py2_7_egg_django_db___init__.html'
p1698
sg32
S'/home/uss/Desktop/myWebDev/django-uss/lib/python2.7/site-packages/Django-1.5.5-py2.7.egg/django/db/__init__'
p1699
sg34
g13
(g14
g15
NtRp1700
(dp1701
g18
I1
sg19
I0
sg20
I34
sg21
I0
sg22
I0
sg23
I12
sg24
I0
sbssg25
S'\x8aW\x922\x1b\x1a\xba\xc6\xc1\x88{Gy|\xfe\x92'
p1702
ssS'_home_uss_Desktop_myWebDev_django-uss_lib_python2_7_site-packages_Django-1_5_5-py2_7_egg_django_contrib_sites_management'
p1703
(dp1704
g6
(dp1705
g8
S'_home_uss_Desktop_myWebDev_django-uss_lib_python2_7_site-packages_Django-1_5_5-py2_7_egg_django_contrib_sites_management.html'
p1706
sg10
S'/home/uss/Desktop/myWebDev/django-uss/lib/python2.7/site-packages/Django-1.5.5-py2.7.egg/django/contrib/sites/management'
p1707
sg12
g13
(g14
g15
NtRp1708
(dp1709
g18
I1
sg19
I0
sg20
I20
sg21
I0
sg22
I0
sg23
I6
sg24
I0
sbssg25
S'\x7f\x8f\xcc,g\x17\xed\xc1V\xdb\xd7e3\xe5\xe6\xca'
p1710
ssS'_home_uss_Desktop_myWebDev_django-uss_lib_python2_7_site-packages_Django-1_5_5-py2_7_egg_django_views_decorators___init__'
p1711
(dp1712
g6
(dp1713
g8
S'_home_uss_Desktop_myWebDev_django-uss_lib_python2_7_site-packages_Django-1_5_5-py2_7_egg_django_views_decorators___init__.html'
p1714
sg10
S'/home/uss/Desktop/myWebDev/django-uss/lib/python2.7/site-packages/Django-1.5.5-py2.7.egg/django/views/decorators/__init__'
p1715
sg12
g13
(g14
g15
NtRp1716
(dp1717
g18
I1
sg19
I0
sg20
I0
sg21
I0
sg22
I0
sg23
I0
sg24
I0
sbssg25
S'\xb0\xc8pN\xaf>\xa0\xbaz\x144\xe0A9\xb8?'
p1718
ssS'_home_uss_Desktop_myWebDev_django-uss_lib_python2_7_site-packages_Django-1_5_5-py2_7_egg_django_utils_dateparse'
p1719
(dp1720
g6
(dp1721
g30
S'_home_uss_Desktop_myWebDev_django-uss_lib_python2_7_site-packages_Django-1_5_5-py2_7_egg_django_utils_dateparse.html'
p1722
sg32
S'/home/uss/Desktop/myWebDev/django-uss/lib/python2.7/site-packages/Django-1.5.5-py2.7.egg/django/utils/dateparse'
p1723
sg34
g13
(g14
g15
NtRp1724
(dp1725
g18
I1
sg19
I0
sg20
I38
sg21
I0
sg22
I0
sg23
I16
sg24
I0
sbssg25
S'Cv\xa5E\xa6\xca[\x17A\xe2HY\x11k\x02\x84'
p1726
ssS'_home_uss_Desktop_myWebDev_django-uss_lib_python2_7_site-packages_Django-1_5_5-py2_7_egg_django_template_loaders_cached'
p1727
(dp1728
g6
(dp1729
g8
S'_home_uss_Desktop_myWebDev_django-uss_lib_python2_7_site-packages_Django-1_5_5-py2_7_egg_django_template_loaders_cached.html'
p1730
sg10
S'/home/uss/Desktop/myWebDev/django-uss/lib/python2.7/site-packages/Django-1.5.5-py2.7.egg/django/template/loaders/cached'
p1731
sg12
g13
(g14
g15
NtRp1732
(dp1733
g18
I1
sg19
I0
sg20
I40
sg21
I0
sg22
I0
sg23
I29
sg24
I0
sbssg25
S"\xb6m'[\xd1h\x8ePw\\*\xeaC\x08\x16\xd5"
p1734
ssS'_home_uss_Desktop_myWebDev_django-uss_lib_python2_7_site-packages_Django-1_5_5-py2_7_egg_django_test_client'
p1735
(dp1736
g6
(dp1737
g30
S'_home_uss_Desktop_myWebDev_django-uss_lib_python2_7_site-packages_Django-1_5_5-py2_7_egg_django_test_client.html'
p1738
sg32
S'/home/uss/Desktop/myWebDev/django-uss/lib/python2.7/site-packages/Django-1.5.5-py2.7.egg/django/test/client'
p1739
sg34
g13
(g14
g15
NtRp1740
(dp1741
g18
I1
sg19
I0
sg20
I276
sg21
I0
sg22
I0
sg23
I138
sg24
I0
sbssg25
S'\xf9\xc1hB\x8d\xe0,\xdf]\x19;\x1f\x029\x841'
p1742
ssS'_home_uss_Desktop_myWebDev_django-uss_lib_python2_7_site-packages_Django-1_5_5-py2_7_egg_django_core_management___init__'
p1743
(dp1744
g6
(dp1745
g8
S'_home_uss_Desktop_myWebDev_django-uss_lib_python2_7_site-packages_Django-1_5_5-py2_7_egg_django_core_management___init__.html'
p1746
sg10
S'/home/uss/Desktop/myWebDev/django-uss/lib/python2.7/site-packages/Django-1.5.5-py2.7.egg/django/core/management/__init__'
p1747
sg12
g13
(g14
g15
NtRp1748
(dp1749
g18
I1
sg19
I0
sg20
I210
sg21
I0
sg22
I0
sg23
I100
sg24
I0
sbssg25
S'o\x83j\x99,9\xd6\x00\x88\xe3\x90\xbb\x0b\xb5\xe6@'
p1750
ssS'_home_uss_Desktop_myWebDev_django-uss_lib_python2_7_site-packages_Django-1_5_5-py2_7_egg_django_contrib_staticfiles_templatetags___init__'
p1751
(dp1752
g6
(dp1753
g8
S'_home_uss_Desktop_myWebDev_django-uss_lib_python2_7_site-packages_Django-1_5_5-py2_7_egg_django_contrib_staticfiles_templatetags___init__.html'
p1754
sg10
S'/home/uss/Desktop/myWebDev/django-uss/lib/python2.7/site-packages/Django-1.5.5-py2.7.egg/django/contrib/staticfiles/templatetags/__init__'
p1755
sg12
g13
(g14
g15
NtRp1756
(dp1757
g18
I1
sg19
I0
sg20
I0
sg21
I0
sg22
I0
sg23
I0
sg24
I0
sbssg25
S'\xb0\xc8pN\xaf>\xa0\xbaz\x144\xe0A9\xb8?'
p1758
ssS'_home_uss_Desktop_myWebDev_django-uss_lib_python2_7_site-packages_Django-1_5_5-py2_7_egg_django_dispatch_dispatcher'
p1759
(dp1760
g6
(dp1761
g30
S'_home_uss_Desktop_myWebDev_django-uss_lib_python2_7_site-packages_Django-1_5_5-py2_7_egg_django_dispatch_dispatcher.html'
p1762
sg32
S'/home/uss/Desktop/myWebDev/django-uss/lib/python2.7/site-packages/Django-1.5.5-py2.7.egg/django/dispatch/dispatcher'
p1763
sg34
g13
(g14
g15
NtRp1764
(dp1765
g18
I1
sg19
I0
sg20
I101
sg21
I0
sg22
I0
sg23
I26
sg24
I0
sbssg25
S'\xf5\xb9\xf5\xd5\xc3\xcb\xa3O\x1d\x14\xe8\xecn\x01\x0c\x06'
p1766
ssS'_home_uss_Desktop_myWebDev_django-uss_lib_python2_7_site-packages_Django-1_5_5-py2_7_egg_django_core_mail_utils'
p1767
(dp1768
g6
(dp1769
g8
S'_home_uss_Desktop_myWebDev_django-uss_lib_python2_7_site-packages_Django-1_5_5-py2_7_egg_django_core_mail_utils.html'
p1770
sg10
S'/home/uss/Desktop/myWebDev/django-uss/lib/python2.7/site-packages/Django-1.5.5-py2.7.egg/django/core/mail/utils'
p1771
sg12
g13
(g14
g15
NtRp1772
(dp1773
g18
I1
sg19
I0
sg20
I9
sg21
I0
sg22
I0
sg23
I4
sg24
I0
sbssg25
S'q\x8f\x86\xa8\x10\xa1\x04\x98^\x0e\xe8\x93\xb7X\xaan'
p1774
ssS'_home_uss_Desktop_myWebDev_django-uss_lib_python2_7_site-packages_Django-1_5_5-py2_7_egg_django_template_defaultfilters'
p1775
(dp1776
g6
(dp1777
g30
S'_home_uss_Desktop_myWebDev_django-uss_lib_python2_7_site-packages_Django-1_5_5-py2_7_egg_django_template_defaultfilters.html'
p1778
sg32
S'/home/uss/Desktop/myWebDev/django-uss/lib/python2.7/site-packages/Django-1.5.5-py2.7.egg/django/template/defaultfilters'
p1779
sg34
g13
(g14
g15
NtRp1780
(dp1781
g18
I1
sg19
I0
sg20
I458
sg21
I0
sg22
I0
sg23
I316
sg24
I0
sbssg25
S'\x04J\x18\x80\x8f..\x19\xc6\x0c6nj\xc8)\xa9'
p1782
ssS'_home_uss_Desktop_myWebDev_django-uss_lib_python2_7_site-packages_Django-1_5_5-py2_7_egg_django_core_mail_message'
p1783
(dp1784
g6
(dp1785
g8
S'_home_uss_Desktop_myWebDev_django-uss_lib_python2_7_site-packages_Django-1_5_5-py2_7_egg_django_core_mail_message.html'
p1786
sg10
S'/home/uss/Desktop/myWebDev/django-uss/lib/python2.7/site-packages/Django-1.5.5-py2.7.egg/django/core/mail/message'
p1787
sg12
g13
(g14
g15
NtRp1788
(dp1789
g18
I1
sg19
I0
sg20
I217
sg21
I0
sg22
I0
sg23
I163
sg24
I0
sbssg25
S'\xd7mL\xc3\xcf\x9bC\xd2\x02P\x19\xf7TF\xc3\xc2'
p1790
ssS'_home_uss_Desktop_myWebDev_django-uss_lib_python2_7_site-packages_Django-1_5_5-py2_7_egg_django_utils_tzinfo'
p1791
(dp1792
g6
(dp1793
g8
S'_home_uss_Desktop_myWebDev_django-uss_lib_python2_7_site-packages_Django-1_5_5-py2_7_egg_django_utils_tzinfo.html'
p1794
sg10
S'/home/uss/Desktop/myWebDev/django-uss/lib/python2.7/site-packages/Django-1.5.5-py2.7.egg/django/utils/tzinfo'
p1795
sg12
g13
(g14
g15
NtRp1796
(dp1797
g18
I1
sg19
I0
sg20
I53
sg21
I0
sg22
I0
sg23
I34
sg24
I0
sbssg25
S'o\xd9[\xd8\xee.\xb3U\x02\x1aM~!Ug\x83'
p1798
ssS'_home_uss_Desktop_myWebDev_django-uss_lib_python2_7_site-packages_Django-1_5_5-py2_7_egg_django_core_context_processors'
p1799
(dp1800
g120
(dp1801
g30
S'_home_uss_Desktop_myWebDev_django-uss_lib_python2_7_site-packages_Django-1_5_5-py2_7_egg_django_core_context_processors.html'
p1802
sg32
S'/home/uss/Desktop/myWebDev/django-uss/lib/python2.7/site-packages/Django-1.5.5-py2.7.egg/django/core/context_processors'
p1803
sg34
g13
(g14
g15
NtRp1804
(dp1805
g18
I1
sg19
I0
sg20
I37
sg21
I0
sg22
I0
sg23
I18
sg24
I0
sbssg126
S'N\xf6\xf0\xbd\x00\x89H%c\xb7<\xc9\xe3\xa6\xa3\xa4'
p1806
ssS'_home_uss_Desktop_myWebDev_django-uss_lib_python2_7_site-packages_Django-1_5_5-py2_7_egg_django_forms_fields'
p1807
(dp1808
g6
(dp1809
g30
S'_home_uss_Desktop_myWebDev_django-uss_lib_python2_7_site-packages_Django-1_5_5-py2_7_egg_django_forms_fields.html'
p1810
sg32
S'/home/uss/Desktop/myWebDev/django-uss/lib/python2.7/site-packages/Django-1.5.5-py2.7.egg/django/forms/fields'
p1811
sg34
g13
(g14
g15
NtRp1812
(dp1813
g18
I1
sg19
I0
sg20
I588
sg21
I0
sg22
I0
sg23
I378
sg24
I0
sbssg25
S"'\x8ea\xd4]*\xf4\xe6\x10\xd4K\r\xa8ML\\"
p1814
ssS'_home_uss_Desktop_myWebDev_django-uss_lib_python2_7_site-packages_Django-1_5_5-py2_7_egg_django_middleware_csrf'
p1815
(dp1816
g6
(dp1817
g30
S'_home_uss_Desktop_myWebDev_django-uss_lib_python2_7_site-packages_Django-1_5_5-py2_7_egg_django_middleware_csrf.html'
p1818
sg32
S'/home/uss/Desktop/myWebDev/django-uss/lib/python2.7/site-packages/Django-1.5.5-py2.7.egg/django/middleware/csrf'
p1819
sg34
g13
(g14
g15
NtRp1820
(dp1821
g18
I1
sg19
I0
sg20
I86
sg21
I0
sg22
I0
sg23
I37
sg24
I0
sbssg25
S'\xce\xc6\x0f\xd5\x19M\x85W8\x17\xac-\x8d\x96\xf8\x85'
p1822
ssS'_home_uss_Desktop_myWebDev_django-uss_lib_python2_7_site-packages_Django-1_5_5-py2_7_egg_django_template_smartif'
p1823
(dp1824
g6
(dp1825
g30
S'_home_uss_Desktop_myWebDev_django-uss_lib_python2_7_site-packages_Django-1_5_5-py2_7_egg_django_template_smartif.html'
p1826
sg32
S'/home/uss/Desktop/myWebDev/django-uss/lib/python2.7/site-packages/Django-1.5.5-py2.7.egg/django/template/smartif'
p1827
sg34
g13
(g14
g15
NtRp1828
(dp1829
g18
I1
sg19
I0
sg20
I104
sg21
I0
sg22
I0
sg23
I23
sg24
I0
sbssg25
S'\xb6\x9dZ\xde\xb1F([\x8f\xcf2\xc0K\x1eQ\x04'
p1830
ssS'_home_uss_Desktop_myWebDev_django-uss_lib_python2_7_site-packages_Django-1_5_5-py2_7_egg_django_utils__os'
p1831
(dp1832
g6
(dp1833
g30
S'_home_uss_Desktop_myWebDev_django-uss_lib_python2_7_site-packages_Django-1_5_5-py2_7_egg_django_utils__os.html'
p1834
sg32
S'/home/uss/Desktop/myWebDev/django-uss/lib/python2.7/site-packages/Django-1.5.5-py2.7.egg/django/utils/_os'
p1835
sg34
g13
(g14
g15
NtRp1836
(dp1837
g18
I1
sg19
I0
sg20
I43
sg21
I0
sg22
I0
sg23
I14
sg24
I0
sbssg25
S'\xe5\xa0\xc8A\xedB\xf8WN:\x91\x19q\x14U:'
p1838
ssS'_home_uss_Desktop_myWebDev_django-uss_lib_python2_7_site-packages_Django-1_5_5-py2_7_egg_django_core_files_images'
p1839
(dp1840
g6
(dp1841
g8
S'_home_uss_Desktop_myWebDev_django-uss_lib_python2_7_site-packages_Django-1_5_5-py2_7_egg_django_core_files_images.html'
p1842
sg10
S'/home/uss/Desktop/myWebDev/django-uss/lib/python2.7/site-packages/Django-1.5.5-py2.7.egg/django/core/files/images'
p1843
sg12
g13
(g14
g15
NtRp1844
(dp1845
g18
I1
sg19
I0
sg20
I40
sg21
I0
sg22
I0
sg23
I32
sg24
I0
sbssg25
S'\xcf\x19\xca\xed\xd0\x9f\xdd\x00\xc0\xb9\xceq\xff\xa6JJ'
p1846
ssS'_home_uss_Desktop_myWebDev_django-uss_lib_python2_7_site-packages_Django-1_5_5-py2_7_egg_django_contrib_staticfiles_management___init__'
p1847
(dp1848
g6
(dp1849
g8
S'_home_uss_Desktop_myWebDev_django-uss_lib_python2_7_site-packages_Django-1_5_5-py2_7_egg_django_contrib_staticfiles_management___init__.html'
p1850
sg10
S'/home/uss/Desktop/myWebDev/django-uss/lib/python2.7/site-packages/Django-1.5.5-py2.7.egg/django/contrib/staticfiles/management/__init__'
p1851
sg12
g13
(g14
g15
NtRp1852
(dp1853
g18
I1
sg19
I0
sg20
I0
sg21
I0
sg22
I0
sg23
I0
sg24
I0
sbssg25
S'\xb0\xc8pN\xaf>\xa0\xbaz\x144\xe0A9\xb8?'
p1854
ssS'_home_uss_Desktop_myWebDev_django-uss_lib_python2_7_site-packages_Django-1_5_5-py2_7_egg_django_utils_importlib'
p1855
(dp1856
g6
(dp1857
g8
S'_home_uss_Desktop_myWebDev_django-uss_lib_python2_7_site-packages_Django-1_5_5-py2_7_egg_django_utils_importlib.html'
p1858
sg10
S'/home/uss/Desktop/myWebDev/django-uss/lib/python2.7/site-packages/Django-1.5.5-py2.7.egg/django/utils/importlib'
p1859
sg12
g13
(g14
g15
NtRp1860
(dp1861
g18
I1
sg19
I0
sg20
I23
sg21
I0
sg22
I0
sg23
I6
sg24
I0
sbssg25
S'\x02p\xb8\xc7\x01M\x08\xaf\xc4K>\x95\xf3\xfa9\xc9'
p1862
ssS'_home_uss_Desktop_myWebDev_django-uss_lib_python2_7_site-packages_Django-1_5_5-py2_7_egg_django_db_backends_sqlite3_base'
p1863
(dp1864
g6
(dp1865
g30
S'_home_uss_Desktop_myWebDev_django-uss_lib_python2_7_site-packages_Django-1_5_5-py2_7_egg_django_db_backends_sqlite3_base.html'
p1866
sg32
S'/home/uss/Desktop/myWebDev/django-uss/lib/python2.7/site-packages/Django-1.5.5-py2.7.egg/django/db/backends/sqlite3/base'
p1867
sg34
g13
(g14
g15
NtRp1868
(dp1869
g18
I1
sg19
I0
sg20
I233
sg21
I0
sg22
I0
sg23
I100
sg24
I0
sbssg25
S'l\xa9\x1e\xc4\x06#\xf8G\x03A{b6\xa5\xa3K'
p1870
ssS'_home_uss_Desktop_myWebDev_django-uss_lib_python2_7_site-packages_Django-1_5_5-py2_7_egg_django_dispatch_saferef'
p1871
(dp1872
g6
(dp1873
g30
S'_home_uss_Desktop_myWebDev_django-uss_lib_python2_7_site-packages_Django-1_5_5-py2_7_egg_django_dispatch_saferef.html'
p1874
sg32
S'/home/uss/Desktop/myWebDev/django-uss/lib/python2.7/site-packages/Django-1.5.5-py2.7.egg/django/dispatch/saferef'
p1875
sg34
g13
(g14
g15
NtRp1876
(dp1877
g18
I1
sg19
I0
sg20
I84
sg21
I0
sg22
I0
sg23
I30
sg24
I0
sbssg25
S'*\xda0\x86\xcd\xa4\xcdm0\x1c\xc3 \xf7L\xbd\x95'
p1878
ssS'_home_uss_Desktop_myWebDev_django-uss_lib_python2_7_site-packages_Django-1_5_5-py2_7_egg_django_conf_global_settings'
p1879
(dp1880
g6
(dp1881
g8
S'_home_uss_Desktop_myWebDev_django-uss_lib_python2_7_site-packages_Django-1_5_5-py2_7_egg_django_conf_global_settings.html'
p1882
sg10
S'/home/uss/Desktop/myWebDev/django-uss/lib/python2.7/site-packages/Django-1.5.5-py2.7.egg/django/conf/global_settings'
p1883
sg12
g13
(g14
g15
NtRp1884
(dp1885
g18
I1
sg19
I0
sg20
I120
sg21
I0
sg22
I0
sg23
I0
sg24
I0
sbssg25
S'\x8f\xb1\xc1\xf1\x9c^\x19\x84\xe4\xc0\x17\xe1\x85\xa1q}'
p1886
ssS'_home_uss_Desktop_myWebDev_django-uss_lib_python2_7_site-packages_Django-1_5_5-py2_7_egg_django_utils_datetime_safe'
p1887
(dp1888
g6
(dp1889
g8
S'_home_uss_Desktop_myWebDev_django-uss_lib_python2_7_site-packages_Django-1_5_5-py2_7_egg_django_utils_datetime_safe.html'
p1890
sg10
S'/home/uss/Desktop/myWebDev/django-uss/lib/python2.7/site-packages/Django-1.5.5-py2.7.egg/django/utils/datetime_safe'
p1891
sg12
g13
(g14
g15
NtRp1892
(dp1893
g18
I1
sg19
I0
sg20
I56
sg21
I0
sg22
I0
sg23
I42
sg24
I0
sbssg25
S'\x0eCr\xfb\x1a\x18\n\xf8\xb1\xdf\xea\xe3\xb1Pfk'
p1894
ssS'_home_uss_Desktop_myWebDev_django-uss_lib_python2_7_site-packages_Django-1_5_5-py2_7_egg_django_contrib_contenttypes_views'
p1895
(dp1896
g6
(dp1897
g8
S'_home_uss_Desktop_myWebDev_django-uss_lib_python2_7_site-packages_Django-1_5_5-py2_7_egg_django_contrib_contenttypes_views.html'
p1898
sg10
S'/home/uss/Desktop/myWebDev/django-uss/lib/python2.7/site-packages/Django-1.5.5-py2.7.egg/django/contrib/contenttypes/views'
p1899
sg12
g13
(g14
g15
NtRp1900
(dp1901
g18
I1
sg19
I0
sg20
I50
sg21
I0
sg22
I0
sg23
I43
sg24
I0
sbssg25
S'\xd2a\x7f\x1e\x9d\x8e\xe3\xc0\x0b\x0c\x19\xcfXg\xae\x16'
p1902
ssS'_home_uss_Desktop_myWebDev_django-uss_lib_python2_7_site-packages_Django-1_5_5-py2_7_egg_django_db_backends_sqlite3_creation'
p1903
(dp1904
g6
(dp1905
g8
S'_home_uss_Desktop_myWebDev_django-uss_lib_python2_7_site-packages_Django-1_5_5-py2_7_egg_django_db_backends_sqlite3_creation.html'
p1906
sg10
S'/home/uss/Desktop/myWebDev/django-uss/lib/python2.7/site-packages/Django-1.5.5-py2.7.egg/django/db/backends/sqlite3/creation'
p1907
sg12
g13
(g14
g15
NtRp1908
(dp1909
g18
I1
sg19
I0
sg20
I44
sg21
I0
sg22
I0
sg23
I17
sg24
I0
sbssg25
S'2\x88\xb6dx-\x8c"\xb8C\xd8=|x\xbf\x1f'
p1910
ssS'_home_uss_Desktop_myWebDev_django-uss_lib_python2_7_site-packages_Django-1_5_5-py2_7_egg_django_core_files_base'
p1911
(dp1912
g6
(dp1913
g8
S'_home_uss_Desktop_myWebDev_django-uss_lib_python2_7_site-packages_Django-1_5_5-py2_7_egg_django_core_files_base.html'
p1914
sg10
S'/home/uss/Desktop/myWebDev/django-uss/lib/python2.7/site-packages/Django-1.5.5-py2.7.egg/django/core/files/base'
p1915
sg12
g13
(g14
g15
NtRp1916
(dp1917
g18
I1
sg19
I0
sg20
I106
sg21
I0
sg22
I0
sg23
I63
sg24
I0
sbssg25
S'1\xdd\x01\xea(\xaa\xb1\x14d1jq\x19\xd1\xfb\xf8'
p1918
ssS'_home_uss_Desktop_myWebDev_django-uss_lib_python2_7_site-packages_Django-1_5_5-py2_7_egg_django_template_base'
p1919
(dp1920
g6
(dp1921
g30
S'_home_uss_Desktop_myWebDev_django-uss_lib_python2_7_site-packages_Django-1_5_5-py2_7_egg_django_template_base.html'
p1922
sg32
S'/home/uss/Desktop/myWebDev/django-uss/lib/python2.7/site-packages/Django-1.5.5-py2.7.egg/django/template/base'
p1923
sg34
g13
(g14
g15
NtRp1924
(dp1925
g18
I1
sg19
I0
sg20
I778
sg21
I0
sg22
I0
sg23
I339
sg24
I0
sbssg25
S'r\xf6\xa4\x99l5Y\xf2\xc6r\xa5\xfd\xf8\x98\xfdE'
p1926
ssS'_home_uss_Desktop_myWebDev_django-uss_lib_python2_7_site-packages_Django-1_5_5-py2_7_egg_django_views_decorators_csrf'
p1927
(dp1928
g6
(dp1929
g8
S'_home_uss_Desktop_myWebDev_django-uss_lib_python2_7_site-packages_Django-1_5_5-py2_7_egg_django_views_decorators_csrf.html'
p1930
sg10
S'/home/uss/Desktop/myWebDev/django-uss/lib/python2.7/site-packages/Django-1.5.5-py2.7.egg/django/views/decorators/csrf'
p1931
sg12
g13
(g14
g15
NtRp1932
(dp1933
g18
I1
sg19
I0
sg20
I34
sg21
I0
sg22
I0
sg23
I13
sg24
I0
sbssg25
S'>\xb8\xe8V\xd1\x05\x90k\x11S\x11\xbd\xb0\xf0\xcf\xbf'
p1934
ssS'_home_uss_Desktop_myWebDev_django-uss_lib_python2_7_site-packages_Django-1_5_5-py2_7_egg_django_contrib_messages_utils'
p1935
(dp1936
g120
(dp1937
g30
S'_home_uss_Desktop_myWebDev_django-uss_lib_python2_7_site-packages_Django-1_5_5-py2_7_egg_django_contrib_messages_utils.html'
p1938
sg32
S'/home/uss/Desktop/myWebDev/django-uss/lib/python2.7/site-packages/Django-1.5.5-py2.7.egg/django/contrib/messages/utils'
p1939
sg34
g13
(g14
g15
NtRp1940
(dp1941
g18
I1
sg19
I0
sg20
I6
sg21
I0
sg22
I0
sg23
I0
sg24
I0
sbssg126
S'\x8e\xc7\xac\x98\xd8\x97}YJ\xae\xe1\x07\xa0\x03\xca\xd0'
p1942
ssS'_home_uss_Desktop_myWebDev_django-uss_lib_python2_7_site-packages_Django-1_5_5-py2_7_egg_django_utils_termcolors'
p1943
(dp1944
g6
(dp1945
g8
S'_home_uss_Desktop_myWebDev_django-uss_lib_python2_7_site-packages_Django-1_5_5-py2_7_egg_django_utils_termcolors.html'
p1946
sg10
S'/home/uss/Desktop/myWebDev/django-uss/lib/python2.7/site-packages/Django-1.5.5-py2.7.egg/django/utils/termcolors'
p1947
sg12
g13
(g14
g15
NtRp1948
(dp1949
g18
I1
sg19
I0
sg20
I57
sg21
I0
sg22
I0
sg23
I40
sg24
I0
sbssg25
S'\x18\xc6\x8a\x88E\xa6\x84\xafY\xd5$\x88@\x9c\xf2\xaf'
p1950
ssS'_home_uss_Desktop_myWebDev_django-uss_lib_python2_7_site-packages_Django-1_5_5-py2_7_egg_django_contrib_auth_tokens'
p1951
(dp1952
g6
(dp1953
g8
S'_home_uss_Desktop_myWebDev_django-uss_lib_python2_7_site-packages_Django-1_5_5-py2_7_egg_django_contrib_auth_tokens.html'
p1954
sg10
S'/home/uss/Desktop/myWebDev/django-uss/lib/python2.7/site-packages/Django-1.5.5-py2.7.egg/django/contrib/auth/tokens'
p1955
sg12
g13
(g14
g15
NtRp1956
(dp1957
g18
I1
sg19
I0
sg20
I34
sg21
I0
sg22
I0
sg23
I22
sg24
I0
sbssg25
S'\xd1\xd4\x9e\xff2}]\xe5\x00\xf9\xfe\x868\xa6\x92+'
p1958
ssS'_home_uss_Desktop_myWebDev_django-uss_lib_python2_7_site-packages_Django-1_5_5-py2_7_egg_django_utils_safestring'
p1959
(dp1960
g6
(dp1961
g30
S'_home_uss_Desktop_myWebDev_django-uss_lib_python2_7_site-packages_Django-1_5_5-py2_7_egg_django_utils_safestring.html'
p1962
sg32
S'/home/uss/Desktop/myWebDev/django-uss/lib/python2.7/site-packages/Django-1.5.5-py2.7.egg/django/utils/safestring'
p1963
sg34
g13
(g14
g15
NtRp1964
(dp1965
g18
I1
sg19
I0
sg20
I62
sg21
I0
sg22
I0
sg23
I26
sg24
I0
sbssg25
S'\xd4\xac\x8ax(\x12{\x91\x94\xa6\xdf\xae\t\x1e\xe0\x06'
p1966
ssS'_home_uss_Desktop_myWebDev_django-uss_lib_python2_7_site-packages_Django-1_5_5-py2_7_egg_django_contrib_messages_storage_session'
p1967
(dp1968
g120
(dp1969
g30
S'_home_uss_Desktop_myWebDev_django-uss_lib_python2_7_site-packages_Django-1_5_5-py2_7_egg_django_contrib_messages_storage_session.html'
p1970
sg32
S'/home/uss/Desktop/myWebDev/django-uss/lib/python2.7/site-packages/Django-1.5.5-py2.7.egg/django/contrib/messages/storage/session'
p1971
sg34
g13
(g14
g15
NtRp1972
(dp1973
g18
I1
sg19
I0
sg20
I23
sg21
I0
sg22
I0
sg23
I10
sg24
I0
sbssg126
S'\xc4\xc3\x134\xbcf\xf1\x1c\x92Jn\xf2dw(\x97'
p1974
ssS'_home_uss_Desktop_myWebDev_django-uss_lib_python2_7_site-packages_Django-1_5_5-py2_7_egg_django_utils_dates'
p1975
(dp1976
g6
(dp1977
g8
S'_home_uss_Desktop_myWebDev_django-uss_lib_python2_7_site-packages_Django-1_5_5-py2_7_egg_django_utils_dates.html'
p1978
sg10
S'/home/uss/Desktop/myWebDev/django-uss/lib/python2.7/site-packages/Django-1.5.5-py2.7.egg/django/utils/dates'
p1979
sg12
g13
(g14
g15
NtRp1980
(dp1981
g18
I1
sg19
I0
sg20
I9
sg21
I0
sg22
I0
sg23
I0
sg24
I0
sbssg25
S'\xed\xe1n\x81\x12\xc1\xc6\x8b\xd8\x98O4:mTA'
p1982
ssS'article_views'
p1983
(dp1984
g120
(dp1985
g30
S'article_views.html'
p1986
sg32
S'article/views'
p1987
sg34
g13
(g14
g15
NtRp1988
(dp1989
g18
I1
sg19
I0
sg20
I89
sg21
I0
sg22
I0
sg23
I55
sg24
I0
sbssg126
S'\xa0\xeb\xa7\xa5d\xadg\xc1\xa6s\x91\x08\x94\x82\x02\xe4'
p1990
ssS'_home_uss_Desktop_myWebDev_django-uss_lib_python2_7_site-packages_Django-1_5_5-py2_7_egg_django_views_decorators_cache'
p1991
(dp1992
g6
(dp1993
g8
S'_home_uss_Desktop_myWebDev_django-uss_lib_python2_7_site-packages_Django-1_5_5-py2_7_egg_django_views_decorators_cache.html'
p1994
sg10
S'/home/uss/Desktop/myWebDev/django-uss/lib/python2.7/site-packages/Django-1.5.5-py2.7.egg/django/views/decorators/cache'
p1995
sg12
g13
(g14
g15
NtRp1996
(dp1997
g18
I1
sg19
I0
sg20
I40
sg21
I0
sg22
I0
sg23
I31
sg24
I0
sbssg25
S'\xb0\xf5\xb4nW\x13d\x8e\xb2\xe1*F\x18\x86\xc9g'
p1998
ssS'_home_uss_Desktop_myWebDev_django-uss_lib_python2_7_site-packages_Django-1_5_5-py2_7_egg_django_core_cache_backends___init__'
p1999
(dp2000
g6
(dp2001
g8
S'_home_uss_Desktop_myWebDev_django-uss_lib_python2_7_site-packages_Django-1_5_5-py2_7_egg_django_core_cache_backends___init__.html'
p2002
sg10
S'/home/uss/Desktop/myWebDev/django-uss/lib/python2.7/site-packages/Django-1.5.5-py2.7.egg/django/core/cache/backends/__init__'
p2003
sg12
g13
(g14
g15
NtRp2004
(dp2005
g18
I1
sg19
I0
sg20
I0
sg21
I0
sg22
I0
sg23
I0
sg24
I0
sbssg25
S'\xb0\xc8pN\xaf>\xa0\xbaz\x144\xe0A9\xb8?'
p2006
ssS'_home_uss_Desktop_myWebDev_django-uss_lib_python2_7_site-packages_Django-1_5_5-py2_7_egg_django_utils___init__'
p2007
(dp2008
g6
(dp2009
g8
S'_home_uss_Desktop_myWebDev_django-uss_lib_python2_7_site-packages_Django-1_5_5-py2_7_egg_django_utils___init__.html'
p2010
sg10
S'/home/uss/Desktop/myWebDev/django-uss/lib/python2.7/site-packages/Django-1.5.5-py2.7.egg/django/utils/__init__'
p2011
sg12
g13
(g14
g15
NtRp2012
(dp2013
g18
I1
sg19
I0
sg20
I0
sg21
I0
sg22
I0
sg23
I0
sg24
I0
sbssg25
S'\xb0\xc8pN\xaf>\xa0\xbaz\x144\xe0A9\xb8?'
p2014
ssS'_home_uss_Desktop_myWebDev_django-uss_lib_python2_7_site-packages_Django-1_5_5-py2_7_egg_django_contrib_admin_actions'
p2015
(dp2016
g6
(dp2017
g8
S'_home_uss_Desktop_myWebDev_django-uss_lib_python2_7_site-packages_Django-1_5_5-py2_7_egg_django_contrib_admin_actions.html'
p2018
sg10
S'/home/uss/Desktop/myWebDev/django-uss/lib/python2.7/site-packages/Django-1.5.5-py2.7.egg/django/contrib/admin/actions'
p2019
sg12
g13
(g14
g15
NtRp2020
(dp2021
g18
I1
sg19
I0
sg20
I34
sg21
I0
sg22
I0
sg23
I25
sg24
I0
sbssg25
S'l\x91\x91\xef\xc5=\x12DR\x98\x8d\x11\x80z!\x0e'
p2022
ssS'_home_uss_Desktop_myWebDev_django-uss_lib_python2_7_site-packages_Django-1_5_5-py2_7_egg_django_contrib_admin_templatetags___init__'
p2023
(dp2024
g6
(dp2025
g8
S'_home_uss_Desktop_myWebDev_django-uss_lib_python2_7_site-packages_Django-1_5_5-py2_7_egg_django_contrib_admin_templatetags___init__.html'
p2026
sg10
S'/home/uss/Desktop/myWebDev/django-uss/lib/python2.7/site-packages/Django-1.5.5-py2.7.egg/django/contrib/admin/templatetags/__init__'
p2027
sg12
g13
(g14
g15
NtRp2028
(dp2029
g18
I1
sg19
I0
sg20
I0
sg21
I0
sg22
I0
sg23
I0
sg24
I0
sbssg25
S'\xb0\xc8pN\xaf>\xa0\xbaz\x144\xe0A9\xb8?'
p2030
ssS'_home_uss_Desktop_myWebDev_django-uss_lib_python2_7_site-packages_Django-1_5_5-py2_7_egg_django_views_generic_dates'
p2031
(dp2032
g120
(dp2033
g30
S'_home_uss_Desktop_myWebDev_django-uss_lib_python2_7_site-packages_Django-1_5_5-py2_7_egg_django_views_generic_dates.html'
p2034
sg32
S'/home/uss/Desktop/myWebDev/django-uss/lib/python2.7/site-packages/Django-1.5.5-py2.7.egg/django/views/generic/dates'
p2035
sg34
g13
(g14
g15
NtRp2036
(dp2037
g18
I1
sg19
I0
sg20
I318
sg21
I0
sg22
I0
sg23
I215
sg24
I0
sbssg126
S'\xc6\xf1W\x8b\xe3A\xc4\x8a\xda\xa0\x0b\xeb\x99S\xe0y'
p2038
ssS'_home_uss_Desktop_myWebDev_django-uss_lib_python2_7_site-packages_Django-1_5_5-py2_7_egg_django_core___init__'
p2039
(dp2040
g6
(dp2041
g8
S'_home_uss_Desktop_myWebDev_django-uss_lib_python2_7_site-packages_Django-1_5_5-py2_7_egg_django_core___init__.html'
p2042
sg10
S'/home/uss/Desktop/myWebDev/django-uss/lib/python2.7/site-packages/Django-1.5.5-py2.7.egg/django/core/__init__'
p2043
sg12
g13
(g14
g15
NtRp2044
(dp2045
g18
I1
sg19
I0
sg20
I0
sg21
I0
sg22
I0
sg23
I0
sg24
I0
sbssg25
S'\xb0\xc8pN\xaf>\xa0\xbaz\x144\xe0A9\xb8?'
p2046
ssS'article_forms'
p2047
(dp2048
g120
(dp2049
g30
S'article_forms.html'
p2050
sg32
S'article/forms'
p2051
sg34
g13
(g14
g15
NtRp2052
(dp2053
g18
I1
sg19
I0
sg20
I10
sg21
I0
sg22
I0
sg23
I0
sg24
I0
sbssg126
S'\x836\xf9\xca\xd2\xe5bc\xc9\xdf\x05{\x85\xc0M\x9b'
p2054
ssS'_home_uss_Desktop_myWebDev_django-uss_lib_python2_7_site-packages_Django-1_5_5-py2_7_egg_django_contrib_staticfiles_utils'
p2055
(dp2056
g6
(dp2057
g8
S'_home_uss_Desktop_myWebDev_django-uss_lib_python2_7_site-packages_Django-1_5_5-py2_7_egg_django_contrib_staticfiles_utils.html'
p2058
sg10
S'/home/uss/Desktop/myWebDev/django-uss/lib/python2.7/site-packages/Django-1.5.5-py2.7.egg/django/contrib/staticfiles/utils'
p2059
sg12
g13
(g14
g15
NtRp2060
(dp2061
g18
I1
sg19
I0
sg20
I37
sg21
I0
sg22
I0
sg23
I30
sg24
I0
sbssg25
S'Q\x99\xe3\x98\xf4\xbc\tTg\xbc\xed\xbd\\\xf9Q\xdd'
p2062
ssS'_home_uss_Desktop_myWebDev_django-uss_lib_python2_7_site-packages_Django-1_5_5-py2_7_egg_django_core_files___init__'
p2063
(dp2064
g6
(dp2065
g8
S'_home_uss_Desktop_myWebDev_django-uss_lib_python2_7_site-packages_Django-1_5_5-py2_7_egg_django_core_files___init__.html'
p2066
sg10
S'/home/uss/Desktop/myWebDev/django-uss/lib/python2.7/site-packages/Django-1.5.5-py2.7.egg/django/core/files/__init__'
p2067
sg12
g13
(g14
g15
NtRp2068
(dp2069
g18
I1
sg19
I0
sg20
I1
sg21
I0
sg22
I0
sg23
I0
sg24
I0
sbssg25
S"\xa1\xbfiA'\x85B\x1e\xd8\xe0\x91\xe3\xf7\x86\x81\xb2"
p2070
ssS'_home_uss_Desktop_myWebDev_django-uss_lib_python2_7_site-packages_Django-1_5_5-py2_7_egg_django_contrib_admin_templatetags_admin_static'
p2071
(dp2072
g6
(dp2073
g8
S'_home_uss_Desktop_myWebDev_django-uss_lib_python2_7_site-packages_Django-1_5_5-py2_7_egg_django_contrib_admin_templatetags_admin_static.html'
p2074
sg10
S'/home/uss/Desktop/myWebDev/django-uss/lib/python2.7/site-packages/Django-1.5.5-py2.7.egg/django/contrib/admin/templatetags/admin_static'
p2075
sg12
g13
(g14
g15
NtRp2076
(dp2077
g18
I1
sg19
I0
sg20
I7
sg21
I0
sg22
I0
sg23
I1
sg24
I0
sbssg25
S'\x99{\xd7\xbc\xa3W\x085\xed$9\xd94r\xea\x15'
p2078
ssS'_home_uss_Desktop_myWebDev_django-uss_lib_python2_7_site-packages_Django-1_5_5-py2_7_egg_django_core_management_commands_loaddata'
p2079
(dp2080
g6
(dp2081
g8
S'_home_uss_Desktop_myWebDev_django-uss_lib_python2_7_site-packages_Django-1_5_5-py2_7_egg_django_core_management_commands_loaddata.html'
p2082
sg10
S'/home/uss/Desktop/myWebDev/django-uss/lib/python2.7/site-packages/Django-1.5.5-py2.7.egg/django/core/management/commands/loaddata'
p2083
sg12
g13
(g14
g15
NtRp2084
(dp2085
g18
I1
sg19
I0
sg20
I157
sg21
I0
sg22
I0
sg23
I66
sg24
I0
sbssg25
S'\x9b<\xe7\x00\x9bjY\x85\x1e\xbf\xae)\xee>K\x01'
p2086
ssS'_home_uss_Desktop_myWebDev_django-uss_lib_python2_7_site-packages_Django-1_5_5-py2_7_egg_django_utils_regex_helper'
p2087
(dp2088
g6
(dp2089
g30
S'_home_uss_Desktop_myWebDev_django-uss_lib_python2_7_site-packages_Django-1_5_5-py2_7_egg_django_utils_regex_helper.html'
p2090
sg32
S'/home/uss/Desktop/myWebDev/django-uss/lib/python2.7/site-packages/Django-1.5.5-py2.7.egg/django/utils/regex_helper'
p2091
sg34
g13
(g14
g15
NtRp2092
(dp2093
g18
I1
sg19
I0
sg20
I188
sg21
I0
sg22
I0
sg23
I90
sg24
I0
sbssg25
S'\xe4\\\x9c\xe5:\xff\xd9u\x82\r|b\\\xf1(\xa5'
p2094
ssS'_home_uss_Desktop_myWebDev_django-uss_lib_python2_7_site-packages_Django-1_5_5-py2_7_egg_django_template_defaulttags'
p2095
(dp2096
g6
(dp2097
g30
S'_home_uss_Desktop_myWebDev_django-uss_lib_python2_7_site-packages_Django-1_5_5-py2_7_egg_django_template_defaulttags.html'
p2098
sg32
S'/home/uss/Desktop/myWebDev/django-uss/lib/python2.7/site-packages/Django-1.5.5-py2.7.egg/django/template/defaulttags'
p2099
sg34
g13
(g14
g15
NtRp2100
(dp2101
g18
I1
sg19
I0
sg20
I608
sg21
I0
sg22
I0
sg23
I398
sg24
I0
sbssg25
S'S\xe5r\xafM\xb1\xc5\x03\x07#\xe9\xd5=,\x0f\xff'
p2102
ssS'_home_uss_Desktop_myWebDev_django-uss_lib_python2_7_site-packages_Django-1_5_5-py2_7_egg_django_core_handlers_wsgi'
p2103
(dp2104
g6
(dp2105
g30
S'_home_uss_Desktop_myWebDev_django-uss_lib_python2_7_site-packages_Django-1_5_5-py2_7_egg_django_core_handlers_wsgi.html'
p2106
sg32
S'/home/uss/Desktop/myWebDev/django-uss/lib/python2.7/site-packages/Django-1.5.5-py2.7.egg/django/core/handlers/wsgi'
p2107
sg34
g13
(g14
g15
NtRp2108
(dp2109
g18
I1
sg19
I0
sg20
I150
sg21
I0
sg22
I0
sg23
I74
sg24
I0
sbssg25
S'X\xe8*\x08\xe4\xd1\xffu\x8d,\x0e\xb3E\x93e\xdb'
p2110
ssS'_home_uss_Desktop_myWebDev_django-uss_lib_python2_7_site-packages_Django-1_5_5-py2_7_egg_django_template_response'
p2111
(dp2112
g6
(dp2113
g8
S'_home_uss_Desktop_myWebDev_django-uss_lib_python2_7_site-packages_Django-1_5_5-py2_7_egg_django_template_response.html'
p2114
sg10
S'/home/uss/Desktop/myWebDev/django-uss/lib/python2.7/site-packages/Django-1.5.5-py2.7.egg/django/template/response'
p2115
sg12
g13
(g14
g15
NtRp2116
(dp2117
g18
I1
sg19
I0
sg20
I72
sg21
I0
sg22
I0
sg23
I50
sg24
I0
sbssg25
S'W\xe7\xef\x08`\xcco\xe3\x14GL\x9fl,\xde\xdc'
p2118
ssS'django_test_forms'
p2119
(dp2120
g120
(dp2121
g30
S'django_test_forms.html'
p2122
sg32
S'django_test/forms'
p2123
sg34
g13
(g14
g15
NtRp2124
(dp2125
g18
I1
sg19
I0
sg20
I14
sg21
I0
sg22
I0
sg23
I5
sg24
I0
sbssg126
S'\xceA\xfb\xba}\x1d\xfc;j\x98\xc5\xce\xd5\xd3+\x99'
p2126
sssS'version'
p2127
S'3.7'
p2128
sS'settings'
p2129
S'\xa3rd\x80\x8f\xb5t?p5\x04R\x18\x85\xda\x82'
p2130
sS'format'
p2131
I1
s.